(dp1
V\u53cd\u9988\u610f\u89c1
p2
F84.246153846153845
sV\u7f16\u53f7\u5fd8
p3
F168.78082191780823
sV\u5e2e\u590d
p4
F84.246153846153845
sV\u53f7\u7801\u5347\u4f4d
p5
F226.48888888888888
sV\u6709\u8bc1\u5238\u516c\u53f8
p6
F226.48888888888888
sV\u89e3\u51b3\u6302\u65ad
p7
F226.48888888888888
sV\u64cd\u5988
p8
F226.48888888888888
sV\u4e0d\u4e86\u539f\u56e0
p9
F84.246153846153845
sV\u8fdb\u6c34\u6539\u6210
p10
F226.48888888888888
sV\u6da8\u8dcc\u6d3b\u52a8
p11
F453.75342465753425
sV\u4ea4\u6613\u624d\u80fd
p12
F84.246153846153845
sV\u5151\u6362\u94a2\u955a
p13
F226.48888888888888
sV\u8dcc\u4e0d\u5956
p14
F226.48888888888888
sV\u5ba2\u6237\u613f\u610f
p15
F226.48888888888888
sV\u81ea\u9009\u80a1\u627e
p16
F226.48888888888888
sV\u6d3b\u52a8\u731c\u5bf9
p17
F226.48888888888888
sV\u65b0\u80a1\u7533\u8d2d\u4e0d\u4e86
p18
F226.48888888888888
sV\u7535\u8bdd\u901a\u77e5
p19
F17.263698630136986
sV\u80fd\u8bf4
p20
F226.48888888888888
sV\u6ca1\u6709\u5ba2\u6237\u7aef
p21
F226.48888888888888
sV\u4e70\u4f1a
p22
F84.246153846153845
sV\u627e\u77e5\u9053
p23
F226.48888888888888
sV\u505a\u70c2
p24
F226.48888888888888
sV\u5b66\u5931\u671b
p25
F226.48888888888888
sV\u8d44\u91d1\u6d41\u5165
p26
F226.48888888888888
sV\u64a4\u4e0d\u4e86
p27
F226.48888888888888
sV\u4e0b\u8f7d\u5730\u5740
p28
F84.246153846153845
sV\u7f3a\u8d44\u91d1
p29
F226.48888888888888
sV\u4e0d\u4e86\u6c14
p30
F226.48888888888888
sV\u6392\u540d\u6ca1\u6709
p31
F226.48888888888888
sV\u60f3\u8865
p32
F84.246153846153845
sV\u4e0d\u80fd\u7ed1\u5b9a
p33
F146.38993710691824
sV\u8d26\u6237\u4e0d\u4e86
p34
F84.246153846153845
sV\u8d44\u6599\u548b\u529e
p35
F84.246153846153845
sV\u6253\u5f00\u70b9\u51fb
p36
F226.48888888888888
sV\u901a\u8d26\u6237
p37
F226.48888888888888
sV\u5230\u8425\u4e1a\u5385
p38
F17.263698630136986
sV\u6a21\u5757\u9700\u8981
p39
F84.246153846153845
sV\u8bb0\u5f97\u53d6\u56de
p40
F84.246153846153845
sV\u7f51\u9875\u4e0d\u89c1
p41
F226.48888888888888
sV\u7f3a\u9677\u8f6f\u4ef6
p42
F226.48888888888888
sV\u663e\u793a\u6ca1
p43
F226.48888888888888
sV\u8d26\u6237\u878d\u8d44
p44
F84.246153846153845
sV\u4f63\u91d1\u8981
p45
F226.48888888888888
sV\u5fd8\u8bb0\u80fd\u5426
p46
F84.246153846153845
sV\u65e0\u6cd5\u8fdb\u5165
p47
F84.246153846153845
sV\u6709\u5458\u5de5
p48
F226.48888888888888
sV\u4e0d\u80fd\u79fb\u52a8
p49
F226.48888888888888
sV\u5f00\u6237\u59d3
p50
F84.246153846153845
sV\u4e0d\u5bf9\u8d60
p51
F84.246153846153845
sV\u79fb\u79fb
p52
F453.75342465753425
sV\u7cfb\u7edf\u8c03\u8bd5
p53
F84.246153846153845
sV\u9009\u62e9\u529f\u80fd
p54
F226.48888888888888
sV\u7be1\u6539\u8bc1\u4e66
p55
F84.246153846153845
sV\u5fd8\u8bf7\u95ee
p56
F84.246153846153845
sV\u5206\u7ea2\u4e0d\u89c1
p57
F84.246153846153845
sV\u7f16\u53f7\u5f04
p58
F84.246153846153845
sV\u53d6\u6d88\u7f51\u9875
p59
F226.48888888888888
sV\u9500\u6237\u53bb
p60
F226.48888888888888
sV\u4ea4\u6613\u6301\u4ed3
p61
F84.246153846153845
sV\u5e0c\u671b\u66f4\u6539
p62
F84.246153846153845
sV\u65e0\u6cd5\u767b\u9646
p63
F84.246153846153845
sV\u80fd\u5b8c\u5584
p64
F84.246153846153845
sV\u6ca1\u6709\u5151\u73b0
p65
F84.246153846153845
sV\u8fdb\u5165\u6073\u8bf7
p66
F84.246153846153845
sV\u8f6c\u4e0d\u8fdb\u53bb
p67
F226.48888888888888
sV\u51c6\u5907\u9000\u51fa
p68
F226.48888888888888
sV\u56de\u624b\u673a
p69
F84.246153846153845
sV\u6ca1\u6709\u8fdb\u8d26
p70
F226.48888888888888
sV\u516c\u53f8\u6392\u9664
p71
F226.48888888888888
sV\u6dfb\u52a0\u9009\u9879
p72
F226.48888888888888
sV\u80fd\u7535\u8111
p73
F84.246153846153845
sV\u8bc1\u5238\u8f6c
p74
F17.263698630136986
sV\u589e\u52a0\u677f\u5757
p75
F84.246153846153845
sV\u4e70\u4e70
p76
F226.48888888888888
sV\u5173\u6ce8\u4eba
p77
F453.75342465753425
sV\u6ca1\u663e\u793a
p78
F17.263698630136986
sV\u624b\u673a\u4e22
p79
F84.246153846153845
sV\u62cd\u7167\u5931\u8d25
p80
F226.48888888888888
sV\u8eab\u4efd\u8bc1\u4e0d\u4e86
p81
F84.246153846153845
sV\u4e0d\u4e86\u89e3\u51b3
p82
F84.246153846153845
sV\u8ba1\u7b97\u80fd\u5426
p83
F84.246153846153845
sV\u662f\u4e71\u7801
p84
F84.246153846153845
sV\u6c9f\u901a\u6e20\u9053
p85
F84.246153846153845
sV\u5ba2\u6237\u627e
p86
F84.246153846153845
sV\u662f\u8bf7
p87
F84.246153846153845
sV\u5bf9\u63a5\u94f6\u884c
p88
F84.246153846153845
sV\u6253\u76d8\u7ebf
p89
F226.48888888888888
sV\u4ef7\u683c\u663e\u793a
p90
F226.48888888888888
sV\u81ea\u9009\u5e0c\u671b
p91
F84.246153846153845
sV\u60f3\u66f4\u6362
p92
F84.246153846153845
sV\u901a\u77e5\u5fae\u4fe1
p93
F84.246153846153845
sV\u53ef\u624b\u673a
p94
F84.246153846153845
sV\u89c6\u9891\u4e0a\u4f20
p95
F226.48888888888888
sV\u9009\u62e9\u76f8\u5173
p96
F84.246153846153845
sV\u662f\u5426\u8bc1\u5238\u516c\u53f8
p97
F226.48888888888888
sV\u589e\u52a0\u6307\u6807
p98
F84.246153846153845
sV\u8bf7\u95ee\u5ba2\u6237
p99
F84.246153846153845
sV\u624b\u7eed\u8d39\u662f
p100
F3.659233847913093
sV\u5e2e\u627e\u56de
p101
F84.246153846153845
sV\u5b58\u5728\u5167\u5e55
p102
F226.48888888888888
sV\u589e\u6536\u76ca
p103
F84.246153846153845
sV\u77e5\u9053\u662f
p104
F226.48888888888888
sV\u627e\u4e0d\u5230
p105
F879.10519556333918
sV\u6570\u91cf\u6709
p106
F84.246153846153845
sV\u80a1\u7968\u4e0d\u4f1a
p107
F226.48888888888888
sV\u80a1\u7968\u64cd\u4f5c
p108
F226.48888888888888
sV\u670d\u52a1\u6ca1
p109
F84.246153846153845
sV\u8981\u7533\u8bf7
p110
F226.48888888888888
sV\u9519\u8bef\u6709
p111
F226.48888888888888
sV\u5e94\u8be5\u5173\u6ce8
p112
F84.246153846153845
sV\u5fd8\u8bb0\u5ba2\u6237
p113
F682.13148788927333
sV\u8d2d\u4e70\u57fa\u91d1
p114
F84.246153846153845
sV\u73b0\u91d1\u589e\u5229
p115
F168.78082191780823
sV\u662f\u4e0d\u80fd
p116
F84.246153846153845
sV\u9884\u7559\u624b\u673a\u53f7
p117
F84.246153846153845
sV\u5f55\u50cf\u65e0\u6cd5
p118
F226.48888888888888
sV\u6ca1\u7ed3\u7b97
p119
F226.48888888888888
sV\u4e0b\u8dcc\u53c2\u4e0e
p120
F226.48888888888888
sV\u6ca1\u6709\u53bb
p121
F453.75342465753425
sV\u767b\u5f55\u5e10\u53f7
p122
F168.78082191780823
sV\u680f\u77e5\u9053
p123
F226.48888888888888
sV\u6301\u80a1\u7968
p124
F226.48888888888888
sV\u8d2d\u4e70\u7406\u8d22\u4ea7\u54c1
p125
F168.78082191780823
sV\u7ed1\u5b9a\u4e0d\u80fd
p126
F84.246153846153845
sV\u4e70\u4e8f
p127
F226.48888888888888
sV\u662f\u6362\u6210
p128
F84.246153846153845
sV\u73a9\u731c
p129
F226.48888888888888
sV\u70b9\u51fb\u8fdb\u6765
p130
F84.246153846153845
sV\u56fd\u503a\u9006
p131
F253.60548885077188
sV\u6ca1\u6709\u521b\u4e1a\u677f
p132
F84.246153846153845
sV\u8f6f\u4ef6\u5410\u8840
p133
F226.48888888888888
sV\u4e0d\u80fd\u4e70\u5356
p134
F84.246153846153845
sV\u7b26\u5408\u65b0\u80a1\u7533\u8d2d
p135
F84.246153846153845
sV\u4fdd\u5bc6\u9700
p136
F226.48888888888888
sV\u767b\u9646\u725b
p137
F226.48888888888888
sV\u662f\u7cfb\u7edf
p138
F84.246153846153845
sV\u4e8b\u731c
p139
F226.48888888888888
sV\u67e5\u4e0d\u5230\u80a1\u7968
p140
F226.48888888888888
sV\u770b\u7ed3\u679c
p141
F453.75342465753425
sV\u62e6\u4f4f\u7ebf
p142
F226.48888888888888
sV\u662f\u786e\u8ba4
p143
F226.48888888888888
sV\u60f3\u8981\u80a1\u7968
p144
F84.246153846153845
sV\u5730\u65b9\u9886\u53d6
p145
F84.246153846153845
sV\u516c\u53f8\u66f4\u6362
p146
F226.48888888888888
sV\u6ca1\u6709\u8bbe\u7f6e
p147
F226.48888888888888
sV\u80a1\u5e02\u5199\u9519
p148
F84.246153846153845
sV\u767b\u5f55\u5931\u8d25
p149
F84.246153846153845
sV\u65b0\u677f\u6ca1\u6709
p150
F226.48888888888888
sV\u6362\u624b\u673a
p151
F424.13080895008608
sV\u6838\u5b9e\u662f\u5426
p152
F226.48888888888888
sV\u89c9\u5f97\u8d23\u4efb\u5fc3
p153
F453.75342465753425
sV\u8f93\u5165\u65e0\u6cd5
p154
F226.48888888888888
sV\u53d6\u6d88\u73b0\u91d1
p155
F84.246153846153845
sV\u9009\u4eba
p156
F84.246153846153845
sV\u8c03\u6574\u4f63\u91d1
p157
F226.48888888888888
sV\u5b98\u7f51\u6ca1\u6709
p158
F226.48888888888888
sV\u5efa\u8bae\u589e\u52a0
p159
F168.78082191780823
sV\u5206\u7ea7\u57fa\u91d1
p160
F84.246153846153845
sV\u6392\u9664\u6709
p161
F226.48888888888888
sV\u4e70\u56fd\u503a
p162
F84.246153846153845
sV\u65b0\u80a1\u6ca1\u4e2d
p163
F226.48888888888888
sV\u6ca1\u6709\u641c\u7d22
p164
F226.48888888888888
sV\u6570\u636e\u6ca1\u6709
p165
F17.263698630136986
sV\u67e5\u5f00\u6237
p166
F84.246153846153845
sV\u5988\u903c
p167
F226.48888888888888
sV\u6302\u662f
p168
F84.246153846153845
sV\u624b\u673a\u4e0d\u80fd
p169
F17.263698630136986
sV\u8bf4\u9001\u6765
p170
F226.48888888888888
sV\u662f\u8d23\u4efb
p171
F453.75342465753425
sV\u80a1\u7968\u4ea4\u6613\u6536\u53d6
p172
F84.246153846153845
sV\u4fee\u6539\u4e0d\u4e86
p173
F226.48888888888888
sV\u63d0\u793a\u6dd8\u91d1
p174
F226.48888888888888
sV\u662f\u7ed1\u5b9a
p175
F84.246153846153845
sV\u6253\u65b0\u80fd\u5426
p176
F168.78082191780823
sV\u64a4\u5355\u6ca1\u6709
p177
F226.48888888888888
sV\u65e0\u7b7e
p178
F226.48888888888888
sV\u8bc1\u5238\u6c92
p179
F226.48888888888888
sV\u8d44\u6599\u5fd8
p180
F84.246153846153845
sV\u5408\u5e76\u662f
p181
F226.48888888888888
sV\u4e0d\u80fd\u53cd\u6620
p182
F226.48888888888888
sV\u4e0d\u80fd\u663e\u793a
p183
F84.246153846153845
sV\u5230\u63d0\u793a
p184
F226.48888888888888
sV\u662f\u65e0\u6cd5
p185
F17.263698630136986
sV\u8981\u6c42\u66f4\u6362
p186
F226.48888888888888
sV\u663e\u793a\u6ca1\u6709
p187
F84.246153846153845
sV\u4e0a\u4f20\u6ca1
p188
F226.48888888888888
sV\u624b\u673a\u635f\u574f
p189
F84.246153846153845
sV\u80fd\u964d\u4f4e
p190
F226.48888888888888
sV\u80fd\u4e70\u5230
p191
F226.48888888888888
sV\u83dc\u5355\u52a8
p192
F84.246153846153845
sV\u4f1a\u51fa
p193
F84.246153846153845
sV\u73b0\u7528\u64cd\u4f5c
p194
F226.48888888888888
sV\u731c\u6da8\u8dcc
p195
F2769.9512195121952
sV\u4e0d\u80fd\u7f51\u7ad9
p196
F226.48888888888888
sV\u66f4\u6362\u5ba2\u670d
p197
F226.48888888888888
sV\u4e0d\u4e86\u624b\u673a
p198
F84.246153846153845
sV\u505a\u9ec4\u91d1
p199
F84.246153846153845
sV\u8f6f\u4ef6\u627e
p200
F84.246153846153845
sV\u95ee\u9898\u53bb
p201
F84.246153846153845
sV\u8d5a\u94b1\u662f
p202
F226.48888888888888
sV\u6295\u6ce8\u8bb0\u5f55
p203
F226.48888888888888
sV\u7533\u8bf7\u4e0d\u4e86
p204
F226.48888888888888
sV\u9189\u8981\u5356
p205
F226.48888888888888
sV\u65e0\u6cd5\u6253\u5f00
p206
F226.48888888888888
sV\u6295\u8d44\u63a2\u4f5c
p207
F226.48888888888888
sV\u8bf7\u89e3\u51b3
p208
F17.263698630136986
sV\u505a\u53ef
p209
F84.246153846153845
sV\u7834\u8f6f\u4ef6
p210
F453.75342465753425
sV\u663e\u793a\u8f6c
p211
F226.48888888888888
sV\u5b9e\u9645\u6301\u4ed3
p212
F226.48888888888888
sV\u663e\u6446\u60f3
p213
F226.48888888888888
sV\u6ca1\u6709\u7b26\u5408\u56fd\u5bb6
p214
F226.48888888888888
sV\u60f3\u8fdb\u884c
p215
F226.48888888888888
sV\u505a\u5ba2\u670d
p216
F226.48888888888888
sV\u4e70\u5165\u6210\u4ea4
p217
F17.263698630136986
sV\u7406\u8d22\u4ea7\u54c1\u60f3
p218
F84.246153846153845
sV\u624b\u673a\u767b\u5f55
p219
F168.78082191780823
sV\u6dfb\u52a0\u81ea\u9009\u80a1
p220
F226.48888888888888
sV\u50cf\u6709
p221
F84.246153846153845
sV\u770b\u5230\u5386\u53f2
p222
F84.246153846153845
sV\u4e0d\u4e86\u80a1\u7968
p223
F226.48888888888888
sV\u64cd\u4f5c\u8981
p224
F84.246153846153845
sV\u901a\u624b\u673a\u53f7\u7801
p225
F226.48888888888888
sV\u5e10\u6237\u663e\u793a
p226
F226.48888888888888
sV\u7ec4\u5408\u6536\u76ca
p227
F84.246153846153845
sV\u5e2e\u5ba2\u6237
p228
F84.246153846153845
sV\u8f6f\u4ef6\u62ff
p229
F226.48888888888888
sV\u731c\u5947\u602a
p230
F226.48888888888888
sV\u7f16\u53f7\u627e\u56de
p231
F84.246153846153845
sV\u6709\u67e5\u8be2
p232
F84.246153846153845
sV\u4eba\u67e5\u627e
p233
F84.246153846153845
sV\u4e70\u6210\u4ea4\u4ef7
p234
F84.246153846153845
sV\u5199\u592a\u70c2
p235
F226.48888888888888
sV\u7edf\u8ba1\u8f6f\u4ef6
p236
F84.246153846153845
sV\u8eab\u4efd\u8bc1\u80fd
p237
F84.246153846153845
sV\u8bb0\u5f97\u8d26\u53f7
p238
F84.246153846153845
sV\u76c8\u4e8f\u7edf\u8ba1
p239
F226.48888888888888
sV\u67e5\u8d26\u53f7
p240
F84.246153846153845
sV\u94b1\u8f6c\u4e0d
p241
F226.48888888888888
sV\u66f4\u6539\u901a
p242
F84.246153846153845
sV\u4e22\u5ba2\u6237
p243
F84.246153846153845
sV\u5f00\u901a\u5206\u7ea7
p244
F84.246153846153845
sV\u8c03\u6574\u76f8\u4fe1
p245
F453.75342465753425
sV\u4f1a\u505c\u6b62
p246
F84.246153846153845
sV\u8fde\u627e\u6295\u987e
p247
F226.48888888888888
sV\u4eba\u5bb6\u56de\u7b54
p248
F226.48888888888888
sV\u63d0\u793a\u62cd\u7167
p249
F226.48888888888888
sV\u4e70\u7406\u8d22\u4ea7\u54c1
p250
F84.246153846153845
sV\u5220\u9664\u952e
p251
F226.48888888888888
sV\u539f\u56e0\u5904\u7406
p252
F84.246153846153845
sV\u4e0d\u5230\u8bf7
p253
F84.246153846153845
sV\u5de5\u5177\u680f\u8bbe\u7f6e
p254
F226.48888888888888
sV\u80a1\u7968\u63d0\u793a
p255
F84.246153846153845
sV\u6307\u6570\u67e5\u770b
p256
F84.246153846153845
sV\u6570\u636e\u52a0\u5165
p257
F84.246153846153845
sV\u8425\u4e1a\u5385\u53bb
p258
F226.48888888888888
sV\u5f00\u673a\u9519
p259
F84.246153846153845
sV\u6362\u6210\u4f4e\u4ef7
p260
F84.246153846153845
sV\u9690\u85cf\u6dd8\u91d1
p261
F84.246153846153845
sV\u51fa\u73b0\u95ee\u9898
p262
F226.48888888888888
sV\u4e0d\u4f1a\u4e70
p263
F226.48888888888888
sV\u8ba4\u8d2d\u663e\u793a
p264
F84.246153846153845
sV\u4e0a\u4f20\u8bf7
p265
F226.48888888888888
sV\u63d0\u4f9b\u67e5\u627e
p266
F84.246153846153845
sV\u662f\u4f63\u91d1
p267
F226.48888888888888
sV\u52a0\u5165\u8ba1\u7b97
p268
F84.246153846153845
sV\u8bf4\u8d26\u6237
p269
F84.246153846153845
sV\u7f16\u53f7\u5fd8\u8bb0
p270
F424.13080895008608
sV\u5b89\u6ca1\u6709
p271
F84.246153846153845
sV\u7ef4\u62a4\u8fdb\u53bb
p272
F226.48888888888888
sV\u8f6f\u4ef6\u589e\u52a0
p273
F168.78082191780823
sV\u8054\u7cfb\u56de\u4e8b
p274
F226.48888888888888
sV\u7533\u8d2d\u529f\u80fd
p275
F226.48888888888888
sV\u8be6\u7ec6\u63cf\u8ff0\u9047\u5230
p276
F84.246153846153845
sV\u8001\u5ba2\u6237\u8981
p277
F84.246153846153845
sV\u7ec4\u5408\u4e0d\u80fd
p278
F681.79759862778735
sV\u8981\u6b7b\u5783\u573e
p279
F226.48888888888888
sV\u5bc6\u7801\u4e0d\u77e5
p280
F84.246153846153845
sV\u4e70\u4e0d\u4e86
p281
F168.78082191780823
sV\u4ecb\u9762\u51fa\u9519
p282
F226.48888888888888
sV\u770b\u4e0d\u5230\u91cf
p283
F226.48888888888888
sV\u9875\u9762\u662f
p284
F84.246153846153845
sV\u65e0\u6cd5\u8c03\u6574
p285
F226.48888888888888
sV\u51fa\u95ee\u9898
p286
F17.263698630136986
sV\u89e3\u51b3\u624b\u673a
p287
F226.48888888888888
sV\u65e7\u7248\u597d\u7528
p288
F226.48888888888888
sV\u6da8\u8dcc\u6295\u6ce8
p289
F226.48888888888888
sV\u8bc1\u5238\u5fae\u4fe1
p290
F226.48888888888888
sV\u60f3\u96c6\u56e2
p291
F84.246153846153845
sV\u8981\u5f00\u6237
p292
F84.246153846153845
sV\u4e0d\u4e86\u80a1\u5e02
p293
F84.246153846153845
sV\u4fee\u6539\u8eab\u4efd\u8bc1
p294
F226.48888888888888
sV\u9001\u5206
p295
F226.48888888888888
sV\u5361\u662f
p296
F453.75342465753425
sV\u878d\u8d44\u878d\u5238
p297
F226.48888888888888
sV\u7f16\u53f7\u77e5\u9053
p298
F84.246153846153845
sV\u80fd\u4f18\u5316
p299
F84.246153846153845
sV\u65e0\u6cd5\u4e0a\u4f20
p300
F226.48888888888888
sV\u5148\u731c\u5927\u76d8
p301
F226.48888888888888
sV\u4e0a\u548b\u529e
p302
F84.246153846153845
sV\u770b\u7f51\u9875
p303
F84.246153846153845
sV\u81ea\u9009\u80a1\u4e0d\u53ef
p304
F84.246153846153845
sV\u624b\u673a\u8fdb\u6c34
p305
F84.246153846153845
sV\u751f\u7269\u5012\u95ed
p306
F226.48888888888888
sV\u4e70\u5356\u7533\u8d2d
p307
F84.246153846153845
sV\u56de\u7b54\u95ee\u9898
p308
F226.48888888888888
sV\u6ca1\u6709\u8bf4\u660e
p309
F84.246153846153845
sV\u5199\u82f9\u679c\u7535\u8111
p310
F226.48888888888888
sV\u60f3\u4fdd\u7559
p311
F84.246153846153845
sV\u5f39\u51fa\u7f51\u9875
p312
F226.48888888888888
sV\u5012\u95ed\u5bb3\u4eba
p313
F226.48888888888888
sV\u627e\u5230\u5e10\u53f7
p314
F84.246153846153845
sV\u662f\u5356\u6389
p315
F84.246153846153845
sV\u627e\u56de\u7f16\u53f7
p316
F168.78082191780823
sV\u5f00\u6237\u4e70\u5165
p317
F84.246153846153845
sV\u5ba2\u6237\u662f
p318
F84.246153846153845
sV\u67e5\u4e0d\u4e86
p319
F146.38993710691824
sV\u4e0d\u5230\u60f3\u8981
p320
F84.246153846153845
sV\u524d\u6bb5\u65f6\u95f4\u597d\u50cf
p321
F84.246153846153845
sV\u4ea4\u6613\u4e0d\u80fd
p322
F84.246153846153845
sV\u6210\u4ea4\u4ef7\u662f
p323
F84.246153846153845
sV\u4e0b\u8dcc\u6ca1\u6709
p324
F226.48888888888888
sV\u662f\u4e8f
p325
F226.48888888888888
sV\u8bf7\u95ee\u5e10\u6237
p326
F168.78082191780823
sV\u7f16\u53f7\u67e5\u80a1
p327
F226.48888888888888
sV\u6263\u662f
p328
F226.48888888888888
sV\u7406\u8d22\u4ea7\u54c1\u662f
p329
F84.246153846153845
sV\u6da8\u8dcc\u731c\u8dcc
p330
F226.48888888888888
sV\u51fa\u8bb0\u5f55
p331
F84.246153846153845
sV\u589e\u52a0\u53c2\u6570\u8bbe\u7f6e
p332
F84.246153846153845
sV\u662f\u5426\u67e5\u627e
p333
F84.246153846153845
sV\u901a\u77e5\u5ba2\u6237
p334
F226.48888888888888
sV\u4eba\u89c9\u5f97
p335
F453.75342465753425
sV\u767b\u9646\u6dd8\u91d1
p336
F84.246153846153845
sV\u63d0\u9192\u6309\u952e
p337
F84.246153846153845
sV\u94f6\u884c\u67e5\u8be2
p338
F226.48888888888888
sV\u4e0d\u884c\u786e\u8ba4
p339
F226.48888888888888
sV\u624b\u7eed\u624b\u673a
p340
F226.48888888888888
sV\u5230\u9ed8\u8ba4
p341
F226.48888888888888
sV\u6362\u4ea4\u6613
p342
F84.246153846153845
sV\u80a1\u7968\u52a8
p343
F84.246153846153845
sV\u6301\u4ed3\u663e\u793a
p344
F168.78082191780823
sV\u7edf\u8ba1\u7edf\u8ba1\u6570\u636e
p345
F226.48888888888888
sV\u6210\u4ea4\u4ef7\u683c
p346
F84.246153846153845
sV\u67e5\u8be2\u5e0c\u671b
p347
F84.246153846153845
sV\u5e10\u6237\u4e70
p348
F84.246153846153845
sV\u5e72\u561b\u5403
p349
F226.48888888888888
sV\u5fc5\u7b54\u4eba\u5bb6
p350
F226.48888888888888
sV\u6ca1\u6709\u63d0\u793a
p351
F84.246153846153845
sV\u4ea7\u54c1\u6263
p352
F226.48888888888888
sV\u7cfb\u7edf\u8bf7
p353
F84.246153846153845
sV\u8ba9\u5ba2\u6237
p354
F226.48888888888888
sV\u662f\u5426\u6346\u7ed1
p355
F84.246153846153845
sV\u80fd\u4e70
p356
F84.246153846153845
sV\u63d0\u793a\u5ba2\u6237
p357
F84.246153846153845
sV\u964d\u4f4e\u4ea4\u6613
p358
F226.48888888888888
sV\u884c\u60c5\u706d
p359
F226.48888888888888
sV\u62a5\u8b66\u544a
p360
F226.48888888888888
sV\u8bf7\u95ee\u8981
p361
F168.78082191780823
sV\u5ba2\u670d\u70e6
p362
F226.48888888888888
sV\u4e0d\u89c1\u731c\u6da8
p363
F226.48888888888888
sV\u63d0\u73b0\u6ca1\u6709
p364
F84.246153846153845
sV\u81ea\u9009\u7248\u672c
p365
F226.48888888888888
sV\u4e70\u4e0d\u5230\u4e70\u4e0d\u5230
p366
F226.48888888888888
sV\u770b\u4e0d\u5230\u7d2f\u79ef
p367
F84.246153846153845
sV\u6c9f\u901a\u662f
p368
F453.75342465753425
sV\u6301\u80a1\u4fe1\u606f
p369
F226.48888888888888
sV\u63a5\u6536\u4fe1\u606f
p370
F226.48888888888888
sV\u63d0\u4ea4\u67e5\u770b
p371
F226.48888888888888
sV\u8bf7\u5e2e
p372
F168.78082191780823
sV\u63d0\u9192\u4e1a\u52a1
p373
F226.48888888888888
sV\u63d0\u793a\u5bb3\u6015
p374
F84.246153846153845
sV\u5956\u52b1\u6ca1\u6536
p375
F84.246153846153845
sV\u6210\u4ea4\u64a4
p376
F226.48888888888888
sV\u7f16\u53f7\u544a\u77e5
p377
F84.246153846153845
sV\u65f6\u63a5\u6536
p378
F226.48888888888888
sV\u4e0d\u5230\u7ed1\u5b9a
p379
F226.48888888888888
sV\u95ee\u9898\u64a4\u5355
p380
F226.48888888888888
sV\u66f4\u6362\u5bf9\u63a5
p381
F84.246153846153845
sV\u4f63\u91d1\u4f1a
p382
F226.48888888888888
sV\u6c92\u65b0\u80a1
p383
F226.48888888888888
sV\u6536\u76ca\u6d41\u901a
p384
F84.246153846153845
sV\u663e\u793a\u6536\u76ca\u7387
p385
F84.246153846153845
sV\u5f04\u5230
p386
F226.48888888888888
sV\u5374\u8bf4\u5bc6\u7801
p387
F226.48888888888888
sV\u5ba2\u6237\u6539
p388
F84.246153846153845
sV\u6307\u6807\u6ca1\u6709
p389
F84.246153846153845
sV\u56de\u5230\u5f00\u6237
p390
F84.246153846153845
sV\u7b7e\u8bc1\u5238
p391
F226.48888888888888
sV\u66f4\u6539\u94f6\u8bc1
p392
F84.246153846153845
sV\u5151\u6362\u9886\u53d6
p393
F84.246153846153845
sV\u6709\u6ca1\u6709\u529e\u6cd5
p394
F84.246153846153845
sV\u767b\u5f55\u95ea\u9000
p395
F226.48888888888888
sV\u5bc6\u7801\u5fd8\u8bb0
p396
F509.83448275862071
sV\u66f4\u6539\u9884\u7559
p397
F84.246153846153845
sV\u67e5\u5230
p398
F168.78082191780823
sV\u51fa\u5ba2\u670d
p399
F226.48888888888888
sV\u60f3\u4e70
p400
F168.78082191780823
sV\u624b\u673a\u5f00\u901a
p401
F84.246153846153845
sV\u8f6f\u4ef6\u67e5\u770b
p402
F226.48888888888888
sV\u8ba4\u8f93
p403
F226.48888888888888
sV\u8bbe\u7f6e\u72ec\u7acb
p404
F84.246153846153845
sV\u6210\u672c\u4ef7\u662f
p405
F226.48888888888888
sV\u67e5\u770b\u80a1\u7968
p406
F84.246153846153845
sV\u8d26\u6237\u9001
p407
F226.48888888888888
sV\u4ea4\u6613\u5230
p408
F226.48888888888888
sV\u4e0d\u5956\u88ab\u6263
p409
F226.48888888888888
sV\u8fc7\u7a0b\u62cd
p410
F226.48888888888888
sV\u662f\u8d5a
p411
F226.48888888888888
sV\u8bb0\u5f97\u5ba2\u6237
p412
F84.246153846153845
sV\u53f7\u7801\u5f00
p413
F84.246153846153845
sV\u7533\u8d2d\u7b7e
p414
F226.48888888888888
sV\u66f4\u6362\u671b
p415
F226.48888888888888
sV\u7535\u8bdd\u6ca1
p416
F84.246153846153845
sV\u6da8\u8dcc\u731c\u4e2d
p417
F226.48888888888888
sV\u901a\u8d26\u53f7
p418
F84.246153846153845
sV\u7533\u8bf7\u6ce8\u518c
p419
F226.48888888888888
sV\u5f00\u901a\u6743\u9650
p420
F168.78082191780823
sV\u9884\u4f30\u8bc1\u5238\u516c\u53f8
p421
F226.48888888888888
sV\u6ca1\u56de\u590d
p422
F17.263698630136986
sV\u9009\u51fa\u6765
p423
F84.246153846153845
sV\u80a1\u7968\u4e0d\u884c
p424
F84.246153846153845
sV\u98ce\u9669\u8bc4\u4f30
p425
F84.246153846153845
sV\u786e\u5b9a\u8981\u6c42
p426
F84.246153846153845
sV\u8bf7\u95ee\u4ea4\u6613
p427
F84.246153846153845
sV\u670d\u52a1\u4ea7\u54c1
p428
F226.48888888888888
sV\u5386\u53f2\u627e
p429
F226.48888888888888
sV\u8bf4\u9001
p430
F168.78082191780823
sV\u8111\u5b50\u8fdb\u6c34
p431
F226.48888888888888
sV\u8d39\u7387\u662f
p432
F84.246153846153845
sV\u8f6f\u4ef6\u5b89\u88c5
p433
F84.246153846153845
sV\u51fa\u6765\u63d0\u793a
p434
F84.246153846153845
sV\u8b66\u793a\u98ce\u9669
p435
F226.48888888888888
sV\u5ba2\u670d\u8d1f\u8d23
p436
F226.48888888888888
sV\u6ca1\u6362\u5bc6\u7801
p437
F226.48888888888888
sV\u7533\u8bf7\u65b0\u80a1
p438
F453.75342465753425
sV\u5fd8\u8bb0\u53bb
p439
F84.246153846153845
sV\u7f29\u653e\u7bad\u5934
p440
F226.48888888888888
sV\u6dfb\u5229
p441
F226.48888888888888
sV\u6709\u52a8\u6001
p442
F226.48888888888888
sV\u8f6f\u4ef6\u662f
p443
F226.48888888888888
sV\u7ecf\u5e38\u51fa\u73b0\u7f51\u7edc
p444
F226.48888888888888
sV\u67e5\u8be2\u5931\u8d25
p445
F226.48888888888888
sV\u8981\u627e\u56de
p446
F84.246153846153845
sV\u7248\u9762\u67e5\u770b
p447
F84.246153846153845
sV\u4fdd\u5b58\u81ea\u9009\u80a1
p448
F84.246153846153845
sV\u8bf4\u7f51\u7edc
p449
F226.48888888888888
sV\u53d8\u5316\u8c03\u6574
p450
F226.48888888888888
sV\u9047\u5230\u9001\u8f6c
p451
F226.48888888888888
sV\u8981\u6563\u6237
p452
F226.48888888888888
sV\u5bc6\u7801\u8865\u529e
p453
F84.246153846153845
sV\u6ca1\u67e5\u770b
p454
F453.75342465753425
sV\u680f\u67e5\u770b
p455
F84.246153846153845
sV\u7cfb\u7edf\u663e\u793a
p456
F453.75342465753425
sV\u5f00\u8d44\u4ea7
p457
F84.246153846153845
sV\u5fc3\u60c5\u5173\u6ce8
p458
F226.48888888888888
sV\u4ea4\u6613\u53d1
p459
F226.48888888888888
sV\u624b\u7eed\u8d39\u770b\u6765
p460
F226.48888888888888
sV\u901a\u77e5\u64cd\u4f5c
p461
F84.246153846153845
sV\u4e0d\u80fd\u4f7f\u7528
p462
F226.48888888888888
sV\u731c\u8dcc\u731c\u5bf9
p463
F226.48888888888888
sV\u6bd4\u4f8b\u662f
p464
F84.246153846153845
sV\u663e\u793a\u4f5c\u5e9f
p465
F226.48888888888888
sV\u5ba2\u6237\u7ecf\u7406\u56de\u590d
p466
F226.48888888888888
sV\u4e0d\u60f3\u8ba9
p467
F84.246153846153845
sV\u80fd\u505a
p468
F84.246153846153845
sV\u8fdb\u884c\u8bbe\u5b9a
p469
F226.48888888888888
sV\u94f6\u8bc1\u8f6c\u8d26
p470
F253.60548885077188
sV\u624b\u7eed\u8d39\u80fd
p471
F168.78082191780823
sV\u662f\u8d26\u6237
p472
F168.78082191780823
sV\u6d4b\u8bd5\u6570\u636e\u6765\u81ea
p473
F84.246153846153845
sV\u5bf9\u6362\u6d41\u91cf
p474
F84.246153846153845
sV\u7248\u6ca1\u6709
p475
F84.246153846153845
sV\u8981\u6295\u8bc9
p476
F226.48888888888888
sV\u6d4b\u8bd5\u6570\u636e\u8bf7
p477
F253.60548885077188
sV\u5151\u73b0\u8d54\u4ed8
p478
F226.48888888888888
sV\u8f6c\u5165\u8f6c
p479
F84.246153846153845
sV\u6ce8\u518c\u624b\u673a\u53f7
p480
F84.246153846153845
sV\u60f3\u77e5\u9053
p481
F253.60548885077188
sV\u56de\u5e94\u8bf4
p482
F226.48888888888888
sV\u624b\u673a\u53f7\u4e0d\u7528
p483
F84.246153846153845
sV\u7248\u672c\u589e\u52a0
p484
F84.246153846153845
sV\u4ea4\u6613\u6210\u4ea4
p485
F226.48888888888888
sV\u53d1\u6765\u77ed\u4fe1
p486
F84.246153846153845
sV\u8d26\u6237\u6709\u94b1
p487
F84.246153846153845
sV\u964d\u4f4e\u4f63\u91d1
p488
F226.48888888888888
sV\u4ea4\u6613\u53ef\u8981
p489
F226.48888888888888
sV\u770b\u770b\u8d26\u6237
p490
F226.48888888888888
sV\u770b\u4e0d\u6e05\u79fb
p491
F226.48888888888888
sV\u53f7\u7801\u6ce8\u518c
p492
F84.246153846153845
sV\u8dcc\u6263
p493
F226.48888888888888
sV\u94b1\u8f6c\u4e0d\u8fdb
p494
F226.48888888888888
sV\u6539\u8fdb\u8bbe\u5b9a
p495
F226.48888888888888
sV\u670d\u52a1\u4e2a\u5f71
p496
F226.48888888888888
sV\u671b\u53f7\u7801
p497
F84.246153846153845
sV\u6709\u5931\u671b
p498
F226.48888888888888
sV\u6bd4\u4f8b\u8981
p499
F226.48888888888888
sV\u6295\u8d44\u6570\u636e
p500
F84.246153846153845
sV\u51fa\u63d0\u9192
p501
F226.48888888888888
sV\u5de5\u5177\u680f\u4e0d\u80fd
p502
F226.48888888888888
sV\u8bf7\u901a
p503
F84.246153846153845
sV\u5e02\u503c\u914d\u552e
p504
F253.60548885077188
sV\u72ec\u7acb\u5bc6\u7801
p505
F84.246153846153845
sV\u5956\u52b1\u731c
p506
F226.48888888888888
sV\u8fd8\u6709\u6ca1
p507
F84.246153846153845
sV\u8d54\u507f\u7206
p508
F226.48888888888888
sV\u6da8\u8dcc\u4e0b\u8dcc
p509
F226.48888888888888
sV\u65b0\u80a1\u6709
p510
F84.246153846153845
sV\u8bc1\u5238\u662f
p511
F226.48888888888888
sV\u7ed3\u679c\u8dcc
p512
F226.48888888888888
sV\u6d41\u901a\u5e02\u503c
p513
F84.246153846153845
sV\u5206\u65f6\u56fe\u663e\u793a
p514
F84.246153846153845
sV\u4e70\u5230\u5356\u5b8c
p515
F226.48888888888888
sV\u8981\u5230
p516
F226.48888888888888
sV\u56de\u6765\u9700\u8981
p517
F84.246153846153845
sV\u6709\u6ca1\u6709\u6362
p518
F226.48888888888888
sV\u8d44\u6599\u7f3a\u5931
p519
F226.48888888888888
sV\u6709\u5ba2
p520
F84.246153846153845
sV\u53cd\u6620\u60c5\u51b5
p521
F226.48888888888888
sV\u6210\u672c\u4ef7\u8ba1\u7b97
p522
F226.48888888888888
sV\u770b\u6765\u8981
p523
F226.48888888888888
sV\u5e94\u662f
p524
F226.48888888888888
sV\u53d1\u4fe1\u606f
p525
F226.48888888888888
sV\u544a\u8bc9\u624d\u80fd
p526
F84.246153846153845
sV\u66f4\u6539\u7ed1\u5b9a
p527
F168.78082191780823
sV\u4eba\u6709
p528
F226.48888888888888
sV\u4e0a\u4f20\u4e0d\u884c
p529
F226.48888888888888
sV\u81ea\u52a8\u5212\u505a
p530
F84.246153846153845
sV\u89c6\u5c4f\u4e0a\u4f20
p531
F226.48888888888888
sV\u5efa\u8bae\u4fee\u6539
p532
F226.48888888888888
sV\u6346\u7ed1\u94f6\u884c\u5e10\u6237
p533
F84.246153846153845
sV\u5f00\u59cb\u8d35\u53f8
p534
F226.48888888888888
sV\u63d0\u793a\u8f6c\u53d1
p535
F84.246153846153845
sV\u56de\u7b54\u70b9\u51fb
p536
F84.246153846153845
sV\u6ca1\u6709\u94b1
p537
F84.246153846153845
sV\u8d44\u91d1\u8f6c\u4e0d\u51fa
p538
F226.48888888888888
sV\u6263\u8ba4
p539
F226.48888888888888
sV\u80a1\u7968\u5356\u51fa
p540
F84.246153846153845
sV\u8f93\u5165\u59d3\u540d
p541
F84.246153846153845
sV\u6ca1\u6709\u53d8\u52a8
p542
F84.246153846153845
sV\u4e70\u72d7\u8089
p543
F226.48888888888888
sV\u662f\u540e\u7eed
p544
F226.48888888888888
sV\u6ca1\u53cd\u6620
p545
F226.48888888888888
sV\u767b\u9646\u8bb0\u5f97
p546
F84.246153846153845
sV\u8eab\u4efd\u8bc1\u8bf4
p547
F84.246153846153845
sV\u8c03\u6574\u624b\u7eed\u8d39
p548
F453.75342465753425
sV\u4e22\u627e\u5230
p549
F84.246153846153845
sV\u662f\u67e5
p550
F84.246153846153845
sV\u6ca1\u6709\u7b7e
p551
F226.48888888888888
sV\u7ed3\u679c\u6ca1
p552
F453.75342465753425
sV\u56de\u590d\u6709
p553
F226.48888888888888
sV\u5e10\u53f7\u6ca1\u6709
p554
F226.48888888888888
sV\u6362\u7535\u8bdd\u53f7\u7801
p555
F84.246153846153845
sV\u663e\u793a\u5f00\u901a
p556
F84.246153846153845
sV\u7533\u8d2d\u5931\u8d25
p557
F226.48888888888888
sV\u6d4b\u8bd5\u8bf7
p558
F84.246153846153845
sV\u6da8\u8dcc\u6ca1\u56de
p559
F226.48888888888888
sV\u7be1\u6539\u89e3\u51b3
p560
F84.246153846153845
sV\u662f\u5426\u7cfb\u7edf
p561
F226.48888888888888
sV\u79fb\u52a8\u5230
p562
F226.48888888888888
sV\u6ca1\u6709\u7f51\u9875
p563
F84.246153846153845
sV\u52a0\u8d44\u91d1
p564
F84.246153846153845
sV\u7cfb\u7edf\u6709
p565
F681.79759862778735
sV\u8fdb\u53bb\u770b\u4e0d\u5230
p566
F226.48888888888888
sV\u5fd8\u8bb0\u6ce8\u518c
p567
F84.246153846153845
sV\u5b98\u65b9\u80fd
p568
F84.246153846153845
sV\u5e0c\u671b\u5b98\u65b9
p569
F84.246153846153845
sV\u7bad\u5934\u6321\u4f4f
p570
F226.48888888888888
sV\u80fd\u8c03\u6574
p571
F84.246153846153845
sV\u73a9\u4e0b\u8f7d
p572
F84.246153846153845
sV\u5bb3\u6015\u9a97
p573
F84.246153846153845
sV\u4e0d\u80fd\u5bfc\u51fa
p574
F84.246153846153845
sV\u4e0b\u8dcc\u5151\u73b0
p575
F226.48888888888888
sV\u8bc1\u5238\u6709
p576
F226.48888888888888
sV\u914d\u53f7\u67e5\u5bfb
p577
F84.246153846153845
sV\u7ecf\u77e5\u9053
p578
F84.246153846153845
sV\u6253\u65b0\u6253
p579
F226.48888888888888
sV\u589e\u52a0\u516c\u5f0f
p580
F84.246153846153845
sV\u6253\u4e0d\u5f00\u9875\u9762
p581
F226.48888888888888
sV\u6570\u636e\u4e0d\u80fd
p582
F168.78082191780823
sV\u7981\u6b62\u53d6\u6b3e
p583
F84.246153846153845
sV\u5e10\u6237\u627e
p584
F84.246153846153845
sV\u7cfb\u7edf\u8bbe\u7f6e
p585
F226.48888888888888
sV\u66f4\u6362\u8425\u4e1a\u90e8
p586
F84.246153846153845
sV\u8f93\u9519\u53f7\u7801
p587
F84.246153846153845
sV\u4e0d\u80fd\u9009
p588
F84.246153846153845
sV\u63d0\u793a\u670d\u52a1\u5668\u8fd4\u56de
p589
F84.246153846153845
sV\u6295\u987e\u7f51\u9875
p590
F226.48888888888888
sV\u4e0d\u80fd\u627e\u56de
p591
F84.246153846153845
sV\u80fd\u627e
p592
F84.246153846153845
sV\u79d8\u94a5\u7be1\u6539
p593
F84.246153846153845
sV\u5e10\u53f7\u53d6\u56de
p594
F84.246153846153845
sV\u4f63\u91d1\u80fd
p595
F226.48888888888888
sV\u4e0b\u8f7d\u5988
p596
F226.48888888888888
sV\u5212\u505a\u7406\u8d22
p597
F84.246153846153845
sV\u663e\u793a\u65e0
p598
F226.48888888888888
sV\u8d44\u4ea7\u67e5
p599
F84.246153846153845
sV\u8fdb\u53bb\u4f59\u989d
p600
F226.48888888888888
sV\u7f51\u9875\u6ca1
p601
F84.246153846153845
sV\u5ba2\u6237\u7533\u8bf7
p602
F226.48888888888888
sV\u4eba\u7c7b\u5220\u9664
p603
F226.48888888888888
sV\u5f04\u4e22
p604
F84.246153846153845
sV\u8d2d\u65b0\u80a1
p605
F226.48888888888888
sV\u6570\u636e\u662f\u4e71
p606
F453.75342465753425
sV\u5408\u5e76\u5ba2\u6237
p607
F226.48888888888888
sV\u4f1a\u5361
p608
F226.48888888888888
sV\u4ea4\u6613\u63d0\u9192
p609
F84.246153846153845
sV\u8bc1\u4e66\u7be1\u6539
p610
F84.246153846153845
sV\u57fa\u91d1\u77e5\u9053
p611
F226.48888888888888
sV\u770b\u5230\u524d\u6bb5\u65f6\u95f4
p612
F84.246153846153845
sV\u4e70\u5165\u5356\u51fa
p613
F226.48888888888888
sV\u663e\u793a\u662f
p614
F84.246153846153845
sV\u6263\u6c92\u4e86
p615
F226.48888888888888
sV\u6295\u653e\u5e7f\u544a
p616
F84.246153846153845
sV\u4e0d\u5230\u5f00\u6237
p617
F84.246153846153845
sV\u76f8\u518c\u9009\u62e9
p618
F226.48888888888888
sV\u98ce\u9669\u6d4b\u8bc4
p619
F84.246153846153845
sV\u6ca1\u6709\u6539\u8fdb
p620
F226.48888888888888
sV\u4e0d\u4e86\u662f
p621
F325.12886597938143
sV\u95ee\u9898\u5904\u7406
p622
F226.48888888888888
sV\u7cfb\u7edf\u641e
p623
F226.48888888888888
sV\u53d6\u6d88\u8d44\u91d1
p624
F84.246153846153845
sV\u4e0d\u4f1a\u7535\u8bdd
p625
F226.48888888888888
sV\u8bdd\u7834
p626
F226.48888888888888
sV\u6dd8\u91d1\u505c\u6b62
p627
F226.48888888888888
sV\u624b\u673a\u81ea\u9009
p628
F84.246153846153845
sV\u767b\u9646\u624b\u673a
p629
F84.246153846153845
sV\u8bb0\u5f97\u7f16\u53f7
p630
F84.246153846153845
sV\u8d35\u670d\u8bf4
p631
F84.246153846153845
sV\u653e\u5927\u7ebf\u56fe
p632
F226.48888888888888
sV\u5fd8\u8bb0\u624d\u80fd
p633
F84.246153846153845
sV\u5230\u901a
p634
F84.246153846153845
sV\u8eab\u4efd\u8bc1\u67e5\u8be2
p635
F84.246153846153845
sV\u67e5\u8be2\u529f\u80fd
p636
F226.48888888888888
sV\u64cd\u4f5c\u6539\u5584
p637
F226.48888888888888
sV\u4f8b\u5982\u5e02\u76c8\u7387
p638
F84.246153846153845
sV\u8eab\u4efd\u8bc1\u8981
p639
F84.246153846153845
sV\u8f6c\u4e0d\u4e86
p640
F253.60548885077188
sV\u6dd8\u91d1\u663e\u793a
p641
F84.246153846153845
sV\u70b9\u51fb\u65ad\u7ebf
p642
F226.48888888888888
sV\u67e5\u770b\u8d26\u6237
p643
F84.246153846153845
sV\u65f6\u63d0\u793a
p644
F84.246153846153845
sV\u6709\u7968
p645
F84.246153846153845
sV\u5929\u624d\u5ba1\u6838
p646
F226.48888888888888
sV\u8f6c\u51fa
p647
F84.246153846153845
sV\u94b1\u8f6c
p648
F84.246153846153845
sV\u5e94\u8be5\u8bbe\u7f6e
p649
F84.246153846153845
sV\u4e0d\u4e86\u60c5\u51b5
p650
F226.48888888888888
sV\u8c03\u6574\u5230
p651
F84.246153846153845
sV\u4f18\u5316\u50cf\u76ca\u76df
p652
F84.246153846153845
sV\u7cfb\u7edf\u6539\u8fdb
p653
F226.48888888888888
sV\u66f2\u7ebf\u4e0d\u52a8
p654
F84.246153846153845
sV\u7406\u8d22\u4ea7\u54c1\u8981
p655
F84.246153846153845
sV\u7b7e\u7f72\u98ce\u9669
p656
F226.48888888888888
sV\u8f93\u8d62\u6263
p657
F226.48888888888888
sV\u77e5\u9053\u5bc6\u7801
p658
F226.48888888888888
sV\u65b0\u80a1\u7533\u8d2d\u6ca1\u4e2d
p659
F226.48888888888888
sV\u7ecf\u64cd\u4f5c
p660
F226.48888888888888
sV\u6263\u663e\u793a
p661
F226.48888888888888
sV\u5bc6\u7801\u8bf7\u95ee
p662
F168.78082191780823
sV\u4e60\u60ef\u662f
p663
F226.48888888888888
sV\u81ea\u9009\u80a1\u6392\u5217
p664
F226.48888888888888
sV\u9886\u53d6\u5956\u54c1
p665
F84.246153846153845
sV\u663e\u793a\u51fa\u6765
p666
F84.246153846153845
sV\u662f\u4e70\u5165
p667
F84.246153846153845
sV\u4e0d\u80fd\u89e3\u7ed1
p668
F84.246153846153845
sV\u589e\u5229\u5229\u7387
p669
F84.246153846153845
sV\u5206\u6570\u6ca1
p670
F226.48888888888888
sV\u5e10\u6237\u627e\u56de
p671
F84.246153846153845
sV\u8bc1\u5238\u516c\u53f8\u4e0d\u4f1a
p672
F226.48888888888888
sV\u610f\u601d\u6ca1\u6709
p673
F226.48888888888888
sV\u6536\u53d6\u4f63\u91d1
p674
F84.246153846153845
sV\u4fe1\u606f\u4e0a\u4f20
p675
F226.48888888888888
sV\u8bf4\u4f63\u91d1
p676
F226.48888888888888
sV\u8f6c\u8d26\u72b6\u6001
p677
F84.246153846153845
sV\u662f\u60f3
p678
F226.48888888888888
sV\u767b\u5f55\u63d0\u793a
p679
F168.78082191780823
sV\u56de\u590d\u5b9e\u76d8
p680
F84.246153846153845
sV\u80fd\u5c0f\u952e\u76d8
p681
F84.246153846153845
sV\u4e0d\u80fd\u8d4e\u56de
p682
F84.246153846153845
sV\u65b0\u80a1\u6ca1\u6709
p683
F226.48888888888888
sV\u505c\u6b62\u8fd0\u884c
p684
F226.48888888888888
sV\u51fa\u6765\u663e\u793a
p685
F84.246153846153845
sV\u6536\u4e0d\u5230\u4fe1\u606f
p686
F84.246153846153845
sV\u9700\u8981\u9690\u85cf
p687
F84.246153846153845
sV\u7ebf\u56fe\u6321\u4f4f
p688
F226.48888888888888
sV\u8ba1\u5165\u80a1\u7968
p689
F84.246153846153845
sV\u6253\u65b0\u80a1
p690
F84.246153846153845
sV\u9875\u9762\u52a0\u8f7d
p691
F226.48888888888888
sV\u627e\u56de\u5e10\u53f7
p692
F84.246153846153845
sV\u7ec4\u5408\u6ca1\u6709
p693
F84.246153846153845
sV\u5927\u5bb6\u67e5\u4e0b
p694
F453.75342465753425
sV\u770b\u7cfb\u7edf
p695
F84.246153846153845
sV\u56de\u7535\u8bdd
p696
F226.48888888888888
sV\u6539\u5931\u671b
p697
F226.48888888888888
sV\u6301\u4ed3\u80a1\u7968
p698
F84.246153846153845
sV\u767b\u5f55\u4e0d\u4e86
p699
F34.646048109965633
sV\u64cd\u4f5c\u505a\u4e0d\u4e86
p700
F226.48888888888888
sV\u80fd\u80a1\u7968
p701
F84.246153846153845
sV\u53ea\u80fd\u53bb
p702
F226.48888888888888
sV\u9700\u8981\u7528\u6237
p703
F84.246153846153845
sV\u662f\u6301\u4ed3
p704
F84.246153846153845
sV\u60c5\u51b5\u4f1a
p705
F226.48888888888888
sV\u8f6f\u4ef6\u6ca1\u6709
p706
F226.48888888888888
sV\u5fd8\u627e\u56de
p707
F84.246153846153845
sV\u6bd4\u5982\u6b21\u65b0\u80a1
p708
F84.246153846153845
sV\u6b63\u53cd\u9762\u80fd
p709
F226.48888888888888
sV\u4e0b\u8f7d\u4eba\u6c11\u5e01
p710
F84.246153846153845
sV\u5f00\u901a\u4e70\u5165
p711
F84.246153846153845
sV\u6253\u6253\u4e0d\u5f00
p712
F226.48888888888888
sV\u5b8c\u5584\u4f7f\u7528\u8005
p713
F84.246153846153845
sV\u4fe1\u606f\u63d0\u793a
p714
F226.48888888888888
sV\u4e2a\u5f71\u4e0d\u89c1
p715
F226.48888888888888
sV\u4e70\u5356\u7ea2\u8272
p716
F84.246153846153845
sV\u4e71\u7801\u8bf7\u95ee
p717
F84.246153846153845
sV\u9ed8\u8ba4\u662f
p718
F226.48888888888888
sV\u76d1\u63a7\u5931\u671b
p719
F226.48888888888888
sV\u5934\u50cf\u4f20\u4e0a\u53bb
p720
F84.246153846153845
sV\u67e5\u65b0\u80a1
p721
F168.78082191780823
sV\u6709\u5fd9
p722
F226.48888888888888
sV\u592a\u5c0f\u770b\u4e0d\u6e05
p723
F226.48888888888888
sV\u4f59\u989d\u67e5\u8be2
p724
F226.48888888888888
sV\u5f71\u54cd\u64cd\u4f5c
p725
F226.48888888888888
sV\u60f3\u64cd\u4f5c
p726
F226.48888888888888
sV\u9875\u9762\u6253\u4e0d\u5f00
p727
F226.48888888888888
sV\u7cfb\u7edf\u6263
p728
F453.75342465753425
sV\u9886\u53d6\u627e
p729
F84.246153846153845
sV\u8fd8\u6709\u8d1f\u8d23
p730
F84.246153846153845
sV\u5ba2\u6237\u5fd8\u8bb0
p731
F84.246153846153845
sV\u663e\u793a\u603b
p732
F226.48888888888888
sV\u5217\u677f\u5757
p733
F84.246153846153845
sV\u63d0\u793a\u53f7\u7801
p734
F84.246153846153845
sV\u8bbe\u7f6e\u64cd\u4f5c
p735
F226.48888888888888
sV\u6301\u80a1\u76c8\u4e8f
p736
F84.246153846153845
sV\u56de\u7b54\u63d0\u95ee
p737
F226.48888888888888
sV\u5931\u671b\u4e0d\u60f3
p738
F226.48888888888888
sV\u6321\u4f4f\u770b
p739
F453.75342465753425
sV\u53cd\u590d\u51fa\u73b0
p740
F226.48888888888888
sV\u65b0\u80a1\u4e0d\u80fd
p741
F84.246153846153845
sV\u662f\u8bc1\u5238\u516c\u53f8
p742
F226.48888888888888
sV\u4e0d\u52a8\u8bf7
p743
F84.246153846153845
sV\u8fd0\u884c\u901f\u5ea6
p744
F226.48888888888888
sV\u5e0c\u671b\u5e2e\u5fd9
p745
F84.246153846153845
sV\u767b\u9646\u4f1a
p746
F84.246153846153845
sV\u63a5\u5230\u5238\u5546
p747
F226.48888888888888
sV\u5f00\u901a\u89e3\u51b3
p748
F84.246153846153845
sV\u98ce\u9669\u8b66\u793a
p749
F226.48888888888888
sV\u5efa\u8bae\u6539\u8fdb
p750
F226.48888888888888
sV\u6807\u7535\u5356
p751
F226.48888888888888
sV\u641c\u4e0d\u5230
p752
F84.246153846153845
sV\u662f\u5ba1\u6838
p753
F226.48888888888888
sV\u4e0b\u8f7d\u8f6f\u4ef6
p754
F226.48888888888888
sV\u6ce8\u518c\u901a
p755
F168.78082191780823
sV\u624b\u673a\u53f7\u6ce8\u518c
p756
F84.246153846153845
sV\u53bb\u529e\u7406
p757
F17.263698630136986
sV\u51fa\u73b0\u4e0b\u56fe
p758
F226.48888888888888
sV\u7ed3\u5e10\u5165\u5e10
p759
F226.48888888888888
sV\u731c\u6da8\u6263
p760
F226.48888888888888
sV\u62cd\u7167\u5ba2\u6237
p761
F226.48888888888888
sV\u80fd\u5426\u663e\u793a
p762
F84.246153846153845
sV\u66f4\u6539\u989c\u8272
p763
F84.246153846153845
sV\u4f4e\u4ef7\u6d88\u8d39
p764
F84.246153846153845
sV\u5f71\u54cd\u4ea4\u6613
p765
F226.48888888888888
sV\u662f\u8fdb\u5165
p766
F84.246153846153845
sV\u4eae\u662f
p767
F226.48888888888888
sV\u6ca1\u6709\u6307\u6807
p768
F84.246153846153845
sV\u95ea\u9000\u4e0b\u8f7d
p769
F226.48888888888888
sV\u9001\u6ca1\u6709
p770
F84.246153846153845
sV\u8bf7\u95ee\u8eab\u4efd\u8bc1
p771
F226.48888888888888
sV\u7535\u8bdd\u6ca1\u6709
p772
F226.48888888888888
sV\u6da8\u8dcc\u7ed3\u5e10
p773
F226.48888888888888
sV\u5c0f\u65f6\u662f
p774
F226.48888888888888
sV\u65e9\u77e5\u4e0d\u5f00
p775
F226.48888888888888
sV\u4e8b\u60c5\u8ba9
p776
F453.75342465753425
sV\u67e5\u627e\u4eba\u5458
p777
F84.246153846153845
sV\u8f6c\u5e10\u8bc1\u5238
p778
F226.48888888888888
sV\u901a\u77e5\u63d0\u793a
p779
F226.48888888888888
sV\u6743\u9650\u5230
p780
F84.246153846153845
sV\u65b0\u80a1\u7533\u8bf7
p781
F226.48888888888888
sV\u662f\u671b
p782
F84.246153846153845
sV\u4e0d\u4e86\u81ea\u9009
p783
F226.48888888888888
sV\u8bf4\u660e\u662f
p784
F84.246153846153845
sV\u8f6c\u51fa\u6765
p785
F84.246153846153845
sV\u65f6\u5019\u8981
p786
F84.246153846153845
sV\u624b\u673a\u7ecf\u5e38\u51fa\u73b0
p787
F226.48888888888888
sV\u8d44\u91d1\u4e70
p788
F226.48888888888888
sV\u641e\u597d\u6253
p789
F226.48888888888888
sV\u641e\u5230
p790
F84.246153846153845
sV\u98ce\u9669\u63ed\u793a
p791
F226.48888888888888
sV\u5fae\u4fe1\u901a\u77e5
p792
F84.246153846153845
sV\u8bf4\u597d\u589e\u52a0
p793
F84.246153846153845
sV\u6307\u6807\u8981
p794
F226.48888888888888
sV\u901a\u4e0d\u80fd
p795
F84.246153846153845
sV\u624d\u80fd\u770b\u5230
p796
F84.246153846153845
sV\u9001\u5206\u6570
p797
F226.48888888888888
sV\u5ba2\u6237\u89c9\u5f97
p798
F226.48888888888888
sV\u67e5\u770b\u662f
p799
F226.48888888888888
sV\u4e88\u4ee5\u5e72\u6d89
p800
F226.48888888888888
sV\u65b0\u80a1\u6253
p801
F226.48888888888888
sV\u8bc1\u5238\u53d1\u6765
p802
F84.246153846153845
sV\u65f6\u9ed8\u8ba4
p803
F226.48888888888888
sV\u539f\u56e0\u4e0d\u80fd
p804
F226.48888888888888
sV\u767b\u5f55\u4ea4\u6613
p805
F84.246153846153845
sV\u8eab\u4efd\u8bc1\u63d0\u793a
p806
F226.48888888888888
sV\u60f3\u67e5\u8be2
p807
F226.48888888888888
sV\u4e0d\u80fd\u7533\u8d2d
p808
F84.246153846153845
sV\u9001\u5730\u65b9
p809
F84.246153846153845
sV\u5206\u6587\u8d5a
p810
F226.48888888888888
sV\u77e5\u9053\u4ea4\u6613
p811
F84.246153846153845
sV\u5f00\u5e02\u5c0f\u65f6
p812
F226.48888888888888
sV\u662f\u624b\u673a
p813
F226.48888888888888
sV\u66f4\u6362\u624b\u673a
p814
F84.246153846153845
sV\u5408\u5e76\u65e0\u6cd5
p815
F226.48888888888888
sV\u5fd8\u624b\u673a
p816
F84.246153846153845
sV\u5fd8\u8fdb\u5165
p817
F84.246153846153845
sV\u64cd\u4f5c\u7ed1\u5b9a
p818
F84.246153846153845
sV\u731c\u5bf9\u6ca1\u6709
p819
F453.75342465753425
sV\u6302\u7f8a\u5934\u4e70
p820
F226.48888888888888
sV\u6ca1\u6709\u65e7\u7248
p821
F226.48888888888888
sV\u8bf4\u7b97
p822
F226.48888888888888
sV\u4e0d\u884c\u63d0\u793a
p823
F84.246153846153845
sV\u731c\u8dcc\u5927\u76d8
p824
F226.48888888888888
sV\u6362\u60f3
p825
F84.246153846153845
sV\u8bc4\u4f30\u70b9\u51fb
p826
F84.246153846153845
sV\u6709\u7ebf
p827
F84.246153846153845
sV\u64cd\u4f5c\u8f6f\u4ef6
p828
F453.75342465753425
sV\u6295\u62c6\u6301
p829
F226.48888888888888
sV\u901a\u53f7\u7801
p830
F84.246153846153845
sV\u64cd\u4f5c\u964d\u81f3
p831
F226.48888888888888
sV\u8fdb\u5165\u5151\u6362
p832
F84.246153846153845
sV\u53c2\u4e0e\u663e\u793a
p833
F226.48888888888888
sV\u6545\u969c\u7ef4\u4fee
p834
F226.48888888888888
sV\u8d44\u91d1\u4f1a
p835
F84.246153846153845
sV\u60f3\u5f00\u901a
p836
F84.246153846153845
sV\u63d0\u73b0\u63d0
p837
F84.246153846153845
sV\u5151\u6362\u65b9\u5f0f
p838
F226.48888888888888
sV\u624b\u7eed\u8d39\u8981\u6c42
p839
F453.75342465753425
sV\u641e\u7f29\u653e
p840
F226.48888888888888
sV\u95ee\u80a1\u4e0d\u7406
p841
F226.48888888888888
sV\u77ed\u4fe1\u9001
p842
F226.48888888888888
sV\u4e8f\u65e0\u6cd5
p843
F226.48888888888888
sV\u53d8\u52a8\u6301\u80a1
p844
F84.246153846153845
sV\u4e0d\u5230\u6dd8\u91d1
p845
F84.246153846153845
sV\u663e\u793a\u63d0\u4ea4
p846
F226.48888888888888
sV\u53bb\u8ffd\u7a76
p847
F453.75342465753425
sV\u5fd8\u8bb0\u5e10\u53f7
p848
F168.78082191780823
sV\u786e\u8ba4\u53cd\u590d
p849
F226.48888888888888
sV\u56fe\u8868\u7edf\u8ba1
p850
F84.246153846153845
sV\u6d41\u91cf\u64cd\u4f5c
p851
F84.246153846153845
sV\u4e0b\u8dcc\u5927\u76d8
p852
F226.48888888888888
sV\u4e0b\u8dcc\u7cfb\u7edf
p853
F226.48888888888888
sV\u6ca1\u6709\u8054\u7cfb\u4eba
p854
F84.246153846153845
sV\u65f6\u4e0d\u80fd
p855
F84.246153846153845
sV\u8d44\u91d1\u8f6c
p856
F84.246153846153845
sV\u5e10\u6237\u662f
p857
F168.78082191780823
sV\u5f00\u7ebf\u56fe
p858
F226.48888888888888
sV\u4e0d\u4e86\u4ea4\u6613
p859
F226.48888888888888
sV\u77e5\u9053\u6dfb\u52a0
p860
F453.75342465753425
sV\u94a2\u8e66
p861
F168.78082191780823
sV\u5230\u7ea2\u5305
p862
F84.246153846153845
sV\u6709\u5ba2\u6237\u7ecf\u7406
p863
F226.48888888888888
sV\u7206\u813e\u6c14
p864
F226.48888888888888
sV\u6253\u4e0d\u4e86
p865
F226.48888888888888
sV\u5230\u94b1
p866
F226.48888888888888
sV\u7edf\u8ba1\u6570\u636e\u6709\u8bef
p867
F226.48888888888888
sV\u63d0\u95ee\u610f\u601d
p868
F226.48888888888888
sV\u89e3\u51b3\u7535\u8bdd
p869
F84.246153846153845
sV\u8d26\u6237\u51fa\u73b0
p870
F226.48888888888888
sV\u63d0\u793a\u5931\u8d25
p871
F226.48888888888888
sV\u7ecf\u7406\u6ca1\u6709
p872
F226.48888888888888
sV\u4e70\u4e70\u4e0d\u5230
p873
F226.48888888888888
sV\u81ea\u52a8\u5173\u95ed
p874
F84.246153846153845
sV\u53ef\u8981\u6362\u6389
p875
F226.48888888888888
sV\u8d39\u53ea\u80fd
p876
F226.48888888888888
sV\u624b\u673a\u767b\u9646
p877
F84.246153846153845
sV\u5238\u5546\u6709
p878
F226.48888888888888
sV\u65f6\u662f
p879
F226.48888888888888
sV\u65b0\u80a1\u7533\u8d2d\u7533
p880
F84.246153846153845
sV\u6295\u6ce8\u6d88\u5931
p881
F226.48888888888888
sV\u5fd8\u8bb0\u5e94\u8be5
p882
F168.78082191780823
sV\u53c2\u8003\u8bc1\u5238
p883
F226.48888888888888
sV\u6d41\u51fa\u8d44\u91d1
p884
F226.48888888888888
sV\u80cc\u666f\u770b\u4e0d\u6e05
p885
F226.48888888888888
sV\u8c03\u6574\u80a1\u7968\u4ea4\u6613
p886
F453.75342465753425
sV\u80fd\u52a0\u5165
p887
F84.246153846153845
sV\u9519\u8bef\u5356\u4e0d\u6389
p888
F226.48888888888888
sV\u4e0a\u4f20\u4e0d\u4e86
p889
F453.75342465753425
sV\u6c47\u603b\u67e5\u8be2
p890
F84.246153846153845
sV\u4e0d\u80fd\u94f6\u8bc1
p891
F226.48888888888888
sV\u80a1\u5e94\u8be5
p892
F84.246153846153845
sV\u770b\u4e0d\u6e05\u6e05\u6670\u5ea6
p893
F226.48888888888888
sV\u7b49\u5230\u63d0\u51fa
p894
F226.48888888888888
sV\u8bc1\u5238\u80fd
p895
F226.48888888888888
sV\u4e0a\u6da8\u5927\u76d8
p896
F226.48888888888888
sV\u8d26\u53f7\u5fd8
p897
F84.246153846153845
sV\u80a1\u4efd\u6302
p898
F84.246153846153845
sV\u8e66\u8f93\u5165
p899
F84.246153846153845
sV\u6ca1\u6709\u5ba2\u6237
p900
F17.263698630136986
sV\u6ca1\u6709\u56de\u7b54
p901
F17.263698630136986
sV\u663e\u793a\u4e70
p902
F84.246153846153845
sV\u4e70\u521b\u4e1a
p903
F84.246153846153845
sV\u6ca1\u6536\u5230
p904
F168.78082191780823
sV\u51fa\u5e72\u6270
p905
F226.48888888888888
sV\u6211\u4f1a\u81ea\u52a8
p906
F226.48888888888888
sV\u670d\u52a1\u8f93\u5165
p907
F84.246153846153845
sV\u8bf7\u95ee\u8d26\u6237
p908
F168.78082191780823
sV\u624b\u673a\u53f7\u7801\u6ca1\u6709
p909
F226.48888888888888
sV\u5386\u53f2\u67e5\u8be2
p910
F84.246153846153845
sV\u8bc1\u5238\u5f3a\u7248
p911
F84.246153846153845
sV\u641c\u7d22\u680f
p912
F226.48888888888888
sV\u8fdb\u5165\u4e0d\u4e86
p913
F84.246153846153845
sV\u9009\u9519\u8425\u4e1a\u90e8
p914
F84.246153846153845
sV\u8bc1\u5238\u7ed1\u5b9a
p915
F84.246153846153845
sV\u8bc4\u6d4b\u4fe1\u606f
p916
F84.246153846153845
sV\u4e0d\u89c1\u6709
p917
F84.246153846153845
sV\u662f\u6536
p918
F17.263698630136986
sV\u5ba1\u6279\u65f6
p919
F84.246153846153845
sV\u8d26\u6237\u4e0d\u80fd
p920
F226.48888888888888
sV\u5199\u5b89
p921
F84.246153846153845
sV\u4f63\u91d1\u662f
p922
F3.659233847913093
sV\u80fd\u770b\u5230
p923
F168.78082191780823
sV\u77ed\u4fe1\u5b9e\u9a8c
p924
F226.48888888888888
sV\u4e0d\u4f1a\u6539
p925
F226.48888888888888
sV\u529e\u6cd5\u627e
p926
F84.246153846153845
sV\u8f6c\u94f6\u884c
p927
F3.659233847913093
sV\u65f6\u9009\u9519
p928
F84.246153846153845
sV\u56de\u8bbf\u77ed\u4fe1
p929
F226.48888888888888
sV\u8bf7\u770b
p930
F84.246153846153845
sV\u63d0\u793a\u4e70
p931
F84.246153846153845
sV\u624d\u80fd\u89e3\u51b3
p932
F84.246153846153845
sV\u5fd8\u8bb0\u4ea4\u6613
p933
F84.246153846153845
sV\u4e70\u5356\u80a1\u7968
p934
F226.48888888888888
sV\u4f63\u91d1\u662f\u5426
p935
F84.246153846153845
sV\u80fd\u67e5\u5230
p936
F84.246153846153845
sV\u53c2\u4e0e\u731c
p937
F226.48888888888888
sV\u8d1f\u8d23\u8bf7
p938
F226.48888888888888
sV\u6253\u5f00\u63d0\u793a
p939
F226.48888888888888
sV\u4e0d\u77e5\u80a1\u7968
p940
F84.246153846153845
sV\u53ea\u80fd\u663e\u793a
p941
F84.246153846153845
sV\u8981\u626b\u8d27
p942
F226.48888888888888
sV\u8d39\u7387\u6ca1\u6709
p943
F453.75342465753425
sV\u662f\u52a8\u6001
p944
F226.48888888888888
sV\u51fa\u73b0\u54a8\u8be2
p945
F226.48888888888888
sV\u62ff\u51fa\u6765
p946
F453.75342465753425
sV\u7f3a\u5c11\u8d44\u6599
p947
F226.48888888888888
sV\u4e0d\u5230\u5ba2\u6237
p948
F84.246153846153845
sV\u63d0\u793a\u6c14\u6124
p949
F226.48888888888888
sV\u63a8\u9001\u7ec4\u5408
p950
F226.48888888888888
sV\u7cfb\u7edf\u7533\u8d2d
p951
F226.48888888888888
sV\u8ba9\u62cd\u7167
p952
F226.48888888888888
sV\u51fa\u9519\u6ca1
p953
F226.48888888888888
sV\u9a97\u5e0c\u671b
p954
F84.246153846153845
sV\u8425\u4e1a\u90e8\u66f4\u6362
p955
F84.246153846153845
sV\u5e2e\u5fd9\u627e
p956
F84.246153846153845
sV\u9047\u5230\u95ee\u9898
p957
F84.246153846153845
sV\u7ed1\u5b9a\u4e0d\u4e86
p958
F84.246153846153845
sV\u4e0b\u6ce8\u5386\u53f2
p959
F226.48888888888888
sV\u66f4\u6362\u8bc1\u5238\u516c\u53f8
p960
F226.48888888888888
sV\u7535\u8bdd\u53f7\u7801\u662f
p961
F84.246153846153845
sV\u529f\u80fd\u6709
p962
F226.48888888888888
sV\u65b0\u80a1\u80fd
p963
F84.246153846153845
sV\u754c\u9762\u6253\u4e0d\u5f00
p964
F226.48888888888888
sV\u6346\u7ed1\u624b\u673a
p965
F84.246153846153845
sV\u8bf4\u6ca1\u6709
p966
F453.75342465753425
sV\u7f16\u53f7\u901a
p967
F226.48888888888888
sV\u8ba1\u7b97\u5f71\u54cd
p968
F226.48888888888888
sV\u8d44\u91d1\u8f6c\u5165
p969
F168.78082191780823
sV\u6536\u4f63\u91d1
p970
F226.48888888888888
sV\u8f6f\u4ef6\u663e\u793a
p971
F84.246153846153845
sV\u5e94\u8be5\u4ea4\u6613
p972
F84.246153846153845
sV\u662f\u5426\u964d\u70b9
p973
F84.246153846153845
sV\u8d26\u6237\u9700\u8981
p974
F84.246153846153845
sV\u624b\u673a\u80fd
p975
F84.246153846153845
sV\u4e70\u80a1
p976
F84.246153846153845
sV\u8bf7\u9a8c\u8bc1
p977
F84.246153846153845
sV\u770b\u4e0d\u6e05\u51fa
p978
F226.48888888888888
sV\u8ba9\u4eba
p979
F453.75342465753425
sV\u8bbe\u7f6e\u81ea\u9009\u80a1
p980
F84.246153846153845
sV\u95ee\u9898\u60f3
p981
F226.48888888888888
sV\u8bf7\u95ee\u627e\u56de
p982
F168.78082191780823
sV\u7ec4\u5408\u6295\u8d44
p983
F226.48888888888888
sV\u662f\u53cd
p984
F226.48888888888888
sV\u8ba1\u7b97\u6709\u8bef
p985
F226.48888888888888
sV\u8981\u624b\u673a\u53f7
p986
F84.246153846153845
sV\u94f6\u884c\u66f4\u6362
p987
F84.246153846153845
sV\u4e0d\u5230\u77ed\u4fe1
p988
F226.48888888888888
sV\u6263\u6295\u6ce8
p989
F453.75342465753425
sV\u8bbe\u7f6e\u6709\u70b9
p990
F226.48888888888888
sV\u6dd8\u91d1\u8f6c
p991
F84.246153846153845
sV\u53cd\u6620\u6536\u76ca\u7387
p992
F84.246153846153845
sV\u8bf7\u95ee\u8425\u4e1a\u90e8
p993
F84.246153846153845
sV\u4e0d\u4f1a\u64cd\u4f5c
p994
F84.246153846153845
sV\u6570\u636e\u5e0c\u671b
p995
F84.246153846153845
sV\u5458\u5de5\u6cc4\u9732
p996
F226.48888888888888
sV\u662f\u8d22\u7ecf
p997
F84.246153846153845
sV\u9ed8\u8ba4\u64cd\u4f5c
p998
F226.48888888888888
sV\u66f4\u6362\u624b\u673a\u53f7
p999
F84.246153846153845
sV\u6709\u8d44\u91d1
p1000
F84.246153846153845
sV\u6dd8\u91d1\u4f1a
p1001
F84.246153846153845
sV\u7f16\u53f7\u670d\u52a1
p1002
F84.246153846153845
sV\u67e5\u627e\u8def\u5f84
p1003
F84.246153846153845
sV\u5347\u7ea7\u767b\u5f55
p1004
F84.246153846153845
sV\u6ca1\u53cd\u5e94
p1005
F226.48888888888888
sV\u5b57\u66f4\u6539
p1006
F84.246153846153845
sV\u6dd8\u91d1\u5f00\u59cb
p1007
F84.246153846153845
sV\u7f16\u7801\u627e
p1008
F84.246153846153845
sV\u5b98\u7f51\u4e0b\u8f7d
p1009
F226.48888888888888
sV\u53ef\u529e\u7406
p1010
F226.48888888888888
sV\u4e0b\u8f7d\u9875\u4e0b\u8f7d
p1011
F226.48888888888888
sV\u9009\u9879\u4e0d\u4e86
p1012
F226.48888888888888
sV\u80fd\u5426\u94f6\u8bc1
p1013
F84.246153846153845
sV\u7b7e\u5230\u770b\u5230
p1014
F84.246153846153845
sV\u7387\u516c\u53f8
p1015
F226.48888888888888
sV\u4e0d\u5f00\u6012\u706b
p1016
F226.48888888888888
sV\u624b\u7eed\u8d39\u7edf\u4e00
p1017
F226.48888888888888
sV\u80a1\u7533\u8d2d
p1018
F84.246153846153845
sV\u8bf7\u95ee\u7533\u8d2d
p1019
F84.246153846153845
sV\u4ea4\u6613\u641e
p1020
F226.48888888888888
sV\u8d26\u6237\u662f
p1021
F84.246153846153845
sV\u51fa\u53ef\u8f6c
p1022
F226.48888888888888
sV\u662f\u6dd8\u91d1
p1023
F17.263698630136986
sV\u76c8\u4e8f\u5206\u6790
p1024
F226.48888888888888
sV\u6709\u5f71\u54cd
p1025
F84.246153846153845
sV\u5b98\u65b9\u7f51\u7ad9\u8ba9
p1026
F226.48888888888888
sV\u4e0d\u5230\u8bf4
p1027
F226.48888888888888
sV\u64cd\u4f5c\u6ca1\u6709
p1028
F84.246153846153845
sV\u6307\u7eb9\u767b\u9646
p1029
F84.246153846153845
sV\u5f00\u6237\u4e0d\u80fd
p1030
F84.246153846153845
sV\u7f16\u53f7\u6ca1\u6536
p1031
F84.246153846153845
sV\u8d60\u6ca1\u6709
p1032
F84.246153846153845
sV\u624b\u673a\u5fd8
p1033
F168.78082191780823
sV\u5361\u5230
p1034
F226.48888888888888
sV\u5ba2\u6237\u7aef\u6c42
p1035
F226.48888888888888
sV\u5fd8\u8bb0\u627e\u56de
p1036
F253.60548885077188
sV\u6dd8\u91d1\u53ea\u80fd
p1037
F84.246153846153845
sV\u56de\u5230\u8d26
p1038
F84.246153846153845
sV\u5173\u95ed\u9875\u9762
p1039
F226.48888888888888
sV\u4e2a\u4eba\u662f
p1040
F226.48888888888888
sV\u4e0d\u80fd\u6570\u636e
p1041
F84.246153846153845
sV\u53d1\u751f\u7b49\u5f85
p1042
F226.48888888888888
sV\u589e\u52a0\u529f\u80fd
p1043
F84.246153846153845
sV\u4e0d\u80fd\u5927\u76d8
p1044
F226.48888888888888
sV\u8bf7\u6d4b\u8bd5\u6570\u636e
p1045
F84.246153846153845
sV\u5b98\u65b9\u627e
p1046
F84.246153846153845
sV\u8bf4\u662f
p1047
F226.48888888888888
sV\u65e0\u6cd5\u5408\u5e76
p1048
F681.79759862778735
sV\u641e\u4e22
p1049
F226.48888888888888
sV\u9189\u95ee\u80a1
p1050
F226.48888888888888
sV\u5ba2\u6237\u63d0\u9192
p1051
F226.48888888888888
sV\u5e2e\u529f\u80fd
p1052
F84.246153846153845
sV\u8d85\u8fc7\u4e0d\u80fd
p1053
F84.246153846153845
sV\u5fd8\u8bb0\u67e5\u8be2
p1054
F84.246153846153845
sV\u624b\u673a\u7533\u8bf7
p1055
F226.48888888888888
sV\u6ca1\u6709\u6536\u76ca
p1056
F226.48888888888888
sV\u5e0c\u671b\u624b\u673a
p1057
F84.246153846153845
sV\u7b7e\u5230\u6ca1\u6709
p1058
F84.246153846153845
sV\u67e5\u8be2\u4f59\u989d
p1059
F226.48888888888888
sV\u53d6\u6d88\u6302\u7f8a\u5934
p1060
F226.48888888888888
sV\u8d26\u53f7\u8bb0\u5f97
p1061
F84.246153846153845
sV\u624b\u673a\u5e26
p1062
F84.246153846153845
sV\u6709\u95ee\u9898
p1063
F910.62542955326455
sV\u529f\u80fd\u6709\u7a7a
p1064
F84.246153846153845
sV\u7533\u8d2d\u4e0d\u80fd
p1065
F226.48888888888888
sV\u6253\u4e0d\u5f00\u65e0\u6cd5
p1066
F226.48888888888888
sV\u6ca1\u6709\u5747\u7ebf
p1067
F84.246153846153845
sV\u8bc4\u6d4b\u6ca1\u6709
p1068
F84.246153846153845
sV\u663e\u793a\u5ba2\u6237
p1069
F84.246153846153845
sV\u7406\u8d22\u8bf7
p1070
F84.246153846153845
sV\u4ea4\u6613\u5e94\u8be5
p1071
F84.246153846153845
sV\u677f\u8001\u51fa\u73b0
p1072
F226.48888888888888
sV\u8f6f\u4ef6\u505a
p1073
F84.246153846153845
sV\u8d26\u6237\u67e5
p1074
F226.48888888888888
sV\u5bfc\u51fa\u5386\u53f2
p1075
F84.246153846153845
sV\u662f\u663e\u793a
p1076
F453.75342465753425
sV\u8d44\u91d1\u5165\u8d26
p1077
F84.246153846153845
sV\u53bb\u770b
p1078
F453.75342465753425
sV\u4e0b\u8f7d\u4e0d\u5230
p1079
F226.48888888888888
sV\u6da8\u8dcc\u4f1a
p1080
F226.48888888888888
sV\u8bb0\u4e0d\u5f97\u5ba2\u6237
p1081
F84.246153846153845
sV\u7edf\u4e00\u4e0d\u5408\u7406
p1082
F226.48888888888888
sV\u5e0c\u671b\u505a\u5ba2
p1083
F226.48888888888888
sV\u7cfb\u7edf\u9ed8\u8ba4
p1084
F226.48888888888888
sV\u8001\u5f39\u51fa
p1085
F226.48888888888888
sV\u77e5\u9053\u63d0\u73b0
p1086
F84.246153846153845
sV\u8d26\u6237\u767b\u9646
p1087
F226.48888888888888
sV\u8fdb\u53bb\u731c
p1088
F226.48888888888888
sV\u9519\u8bef\u770b
p1089
F226.48888888888888
sV\u8425\u4e1a\u5385\u662f
p1090
F84.246153846153845
sV\u9700\u8981\u5e2e\u52a9
p1091
F84.246153846153845
sV\u6dd8\u91d1\u4e0d\u80fd
p1092
F84.246153846153845
sV\u53c2\u52a0\u731c
p1093
F226.48888888888888
sV\u662f\u95ee\u9898
p1094
F453.75342465753425
sV\u624b\u7eed\u8d39\u8c03\u4f4e
p1095
F84.246153846153845
sV\u5c0f\u5fc3\u5230
p1096
F84.246153846153845
sV\u767b\u9646\u8d26\u53f7
p1097
F84.246153846153845
sV\u8bf4\u6765
p1098
F226.48888888888888
sV\u6ca1\u6709\u670d\u52a1
p1099
F226.48888888888888
sV\u9519\u5931\u7533\u8d2d
p1100
F226.48888888888888
sV\u6ca1\u6709\u8c03\u6574
p1101
F453.75342465753425
sV\u5e10\u6237\u662f\u5426
p1102
F84.246153846153845
sV\u5229\u7387\u80fd
p1103
F84.246153846153845
sV\u4e70\u5356\u624b\u7eed\u8d39
p1104
F226.48888888888888
sV\u4fe1\u606f\u8bf4
p1105
F226.48888888888888
sV\u7ec4\u5408\u4f1a
p1106
F84.246153846153845
sV\u4e0b\u8f7d\u529f\u80fd
p1107
F226.48888888888888
sV\u9700\u52a0\u5f3a
p1108
F226.48888888888888
sV\u770b\u7ebf
p1109
F226.48888888888888
sV\u51fa\u6545\u969c
p1110
F226.48888888888888
sV\u80a1\u7968\u767b\u5f55
p1111
F226.48888888888888
sV\u786e\u8ba4\u952e
p1112
F226.48888888888888
sV\u5230\u6b7b
p1113
F226.48888888888888
sV\u63d0\u51fa\u8bf7
p1114
F226.48888888888888
sV\u5931\u671b\u662f
p1115
F226.48888888888888
sV\u4e0d\u5230\u63a8\u51fa
p1116
F84.246153846153845
sV\u4fe1\u606f\u53d8\u66f4
p1117
F84.246153846153845
sV\u7535\u8bdd\u544a\u77e5
p1118
F84.246153846153845
sV\u5e0c\u671b\u8bc1\u5238
p1119
F226.48888888888888
sV\u95ee\u9898\u62ff
p1120
F226.48888888888888
sV\u77e5\u9053\u6709\u6ca1\u6709
p1121
F84.246153846153845
sV\u5e10\u53f7\u5fd8\u8bb0
p1122
F338.7216494845361
sV\u6295\u8d44\u9002\u5408
p1123
F226.48888888888888
sV\u7528\u6237\u540d\u80fd
p1124
F84.246153846153845
sV\u67e5\u627e\u5e10\u53f7
p1125
F84.246153846153845
sV\u65f6\u4e0a\u4f20
p1126
F226.48888888888888
sV\u8981\u6c42\u8c03\u6574
p1127
F453.75342465753425
sV\u5206\u8d26\u6237
p1128
F226.48888888888888
sV\u7535\u8111\u6ca1\u6709
p1129
F84.246153846153845
sV\u5151\u6362\u94a2\u955a\u4e86
p1130
F84.246153846153845
sV\u624b\u673a\u53f7\u4e0a
p1131
F84.246153846153845
sV\u914d\u552e\u67e5
p1132
F84.246153846153845
sV\u6765\u4fe1\u544a\u77e5
p1133
F84.246153846153845
sV\u4e8f\u76c8\u5e0c\u671b
p1134
F84.246153846153845
sV\u8f6f\u4ef6\u52b3\u8d44
p1135
F226.48888888888888
sV\u52a0\u5f3a\u516c\u53f8
p1136
F226.48888888888888
sV\u6dd8\u91d1\u7ec4\u5408
p1137
F226.48888888888888
sV\u7ec4\u5408\u663e\u793a
p1138
F226.48888888888888
sV\u8d70\u89e3\u51b3
p1139
F226.48888888888888
sV\u4e0d\u4e86\u7f16\u53f7
p1140
F226.48888888888888
sV\u8ba2\u7ec4\u5408
p1141
F84.246153846153845
sV\u7ec4\u5408\u6ca1
p1142
F84.246153846153845
sV\u5f00\u6237\u63a5\u5230
p1143
F226.48888888888888
sV\u8d2d\u4e70\u77ed\u4fe1
p1144
F84.246153846153845
sV\u5fd8\u8bb0\u662f
p1145
F84.246153846153845
sV\u9ed8\u8ba4\u680f
p1146
F226.48888888888888
sV\u7f3a\u5931\u5e94
p1147
F226.48888888888888
sV\u8981\u98ce\u9669
p1148
F84.246153846153845
sV\u6ca1\u4eba\u5de5
p1149
F84.246153846153845
sV\u5f00\u6237\u8bf4
p1150
F226.48888888888888
sV\u83dc\u5355\u6539\u5230
p1151
F226.48888888888888
sV\u5e10\u53f7\u767b\u5f55
p1152
F253.60548885077188
sV\u4e0d\u80fd\u4ea4\u6613
p1153
F3.659233847913093
sV\u767b\u9646\u65f6\u5019
p1154
F84.246153846153845
sV\u5356\u6389\u80a1\u7968
p1155
F84.246153846153845
sV\u4e22\u5149
p1156
F226.48888888888888
sV\u6253\u4e0d\u5230
p1157
F226.48888888888888
sV\u589e\u52a0\u770b\u76d8
p1158
F84.246153846153845
sV\u624b\u673a\u4e0b\u8f7d
p1159
F84.246153846153845
sV\u7ecf\u7406\u5e0c\u671b
p1160
F226.48888888888888
sV\u6ca1\u95ee\u9898
p1161
F84.246153846153845
sV\u8d26\u53f7\u4e0d\u80fd
p1162
F84.246153846153845
sV\u63d0\u793a\u89e3\u51b3
p1163
F226.48888888888888
sV\u8981\u5356\u65f6\u5019
p1164
F226.48888888888888
sV\u65b0\u80a1\u5904\u7406
p1165
F84.246153846153845
sV\u80fd\u53cd\u6620
p1166
F84.246153846153845
sV\u6709\u9700\u8981
p1167
F84.246153846153845
sV\u653e\u5927\u62e6\u4f4f
p1168
F226.48888888888888
sV\u4e70\u70b9\u64cd\u4f5c
p1169
F84.246153846153845
sV\u5ba2\u6237\u7aef\u4e0b\u8f7d
p1170
F17.263698630136986
sV\u635f\u5931\u770b\u7740
p1171
F226.48888888888888
sV\u5408\u5e76\u8d26\u6237
p1172
F226.48888888888888
sV\u5c0f\u952e\u76d8\u5207\u6362
p1173
F84.246153846153845
sV\u67e5\u770b\u8d39\u7387
p1174
F453.75342465753425
sV\u5783\u573e\u4e0d\u80fd
p1175
F226.48888888888888
sV\u4e0d\u5230\u5e0c\u671b
p1176
F84.246153846153845
sV\u5e94\u8be5\u627e\u56de
p1177
F84.246153846153845
sV\u5e72\u6270\u64cd\u4f5c
p1178
F226.48888888888888
sV\u8f6f\u4ef6\u767b\u5f55
p1179
F226.48888888888888
sV\u4e0d\u80fd\u8d2d\u4e70
p1180
F168.78082191780823
sV\u6ca1\u63d0\u793a
p1181
F226.48888888888888
sV\u5f3a\u7248\u8f6f\u4ef6
p1182
F84.246153846153845
sV\u5747\u7ebf\u8bbe\u7f6e
p1183
F17.263698630136986
sV\u8ba9\u4f7f\u7528\u8005
p1184
F226.48888888888888
sV\u8d44\u91d1\u56de\u5230
p1185
F84.246153846153845
sV\u8d26\u53f7\u627e
p1186
F168.78082191780823
sV\u7ed1\u5b9a\u4ea4\u6613
p1187
F226.48888888888888
sV\u4fe1\u606f\u4f8b\u5982
p1188
F84.246153846153845
sV\u8bf7\u539f\u56e0
p1189
F84.246153846153845
sV\u9875\u9762\u51fa
p1190
F226.48888888888888
sV\u8bc1\u5238\u4e0d\u80fd
p1191
F226.48888888888888
sV\u80fd\u4e0d\u80fd
p1192
F325.12886597938143
sV\u662f\u589e
p1193
F84.246153846153845
sV\u5b89\u88c5\u5173\u95ed
p1194
F226.48888888888888
sV\u5230\u8d26\u53f7
p1195
F84.246153846153845
sV\u662f\u5783\u573e
p1196
F226.48888888888888
sV\u4e0d\u4e86\u5f00
p1197
F84.246153846153845
sV\u8f6c\u8d26\u8981\u52a0
p1198
F84.246153846153845
sV\u4e0d\u4f1a\u4fe1\u606f
p1199
F84.246153846153845
sV\u53ef\u5426\u51fa
p1200
F226.48888888888888
sV\u9001\u7ed9\u5206\u5728
p1201
F84.246153846153845
sV\u52a8\u5f39\u51fa
p1202
F453.75342465753425
sV\u7406\u8d22\u4ea7\u54c1\u4e70\u4e0d\u5230
p1203
F226.48888888888888
sV\u6da8\u8dcc\u731c\u5bf9
p1204
F453.75342465753425
sV\u8bbe\u7f6e\u5de5\u5177\u680f
p1205
F226.48888888888888
sV\u7f51\u7edc\u6253\u4e0d\u5f00
p1206
F226.48888888888888
sV\u4e70\u4e0d\u5230\u4e70
p1207
F226.48888888888888
sV\u8d26\u6237\u8bf7\u95ee
p1208
F84.246153846153845
sV\u5b9e\u76d8\u5c55\u793a
p1209
F84.246153846153845
sV\u5ef6\u8fdf\u624b\u673a
p1210
F226.48888888888888
sV\u67e5\u5bfb\u8bc1\u5238\u4ea4\u6613
p1211
F84.246153846153845
sV\u6dd8\u91d1\u770b\u4e0d\u5230
p1212
F226.48888888888888
sV\u5783\u573e\u77e5\u9053
p1213
F453.75342465753425
sV\u767b\u5f55\u5ba2\u6237
p1214
F84.246153846153845
sV\u4e0d\u89c1\u641e
p1215
F226.48888888888888
sV\u65e0\u529b\u5410\u69fd
p1216
F226.48888888888888
sV\u540e\u7eed\u6709
p1217
F226.48888888888888
sV\u901a\u7528\u6237\u540d
p1218
F84.246153846153845
sV\u8bf7\u95ee\u64cd\u4f5c
p1219
F84.246153846153845
sV\u767b\u9646\u5e10\u53f7
p1220
F84.246153846153845
sV\u77e5\u9053\u901a
p1221
F168.78082191780823
sV\u52b3\u8d44\u9500\u6237
p1222
F226.48888888888888
sV\u4ea4\u6613\u6709
p1223
F84.246153846153845
sV\u7ec4\u5408\u8d77
p1224
F84.246153846153845
sV\u4e0d\u5230\u4ea4\u6613
p1225
F226.48888888888888
sV\u6536\u5230\u6709
p1226
F226.48888888888888
sV\u4e0b\u8f7d\u8bc1\u5238
p1227
F84.246153846153845
sV\u6d88\u606f\u63d0\u793a
p1228
F226.48888888888888
sV\u731c\u6307\u6570
p1229
F226.48888888888888
sV\u6295\u987e\u670d\u52a1
p1230
F226.48888888888888
sV\u80a1\u4e70
p1231
F84.246153846153845
sV\u770b\u5747\u7ebf
p1232
F84.246153846153845
sV\u6709\u529e\u6cd5
p1233
F84.246153846153845
sV\u505a\u4e0d\u4e86\u8bf4
p1234
F226.48888888888888
sV\u8bf7\u516c\u53f8
p1235
F226.48888888888888
sV\u80fd\u8c03\u4f4e
p1236
F84.246153846153845
sV\u6570\u636e\u4e0d\u51c6
p1237
F226.48888888888888
sV\u624d\u80fd\u627e
p1238
F84.246153846153845
sV\u65b0\u80a1\u77e5\u9053
p1239
F226.48888888888888
sV\u663e\u793a\u9875\u9762
p1240
F453.75342465753425
sV\u670d\u52a1\u53d6\u6d88
p1241
F226.48888888888888
sV\u7f16\u7801\u5fd8\u8bb0
p1242
F84.246153846153845
sV\u8bf7\u95ee\u662f
p1243
F84.246153846153845
sV\u6709\u6ca1\u6709\u7b7e
p1244
F84.246153846153845
sV\u4e0d\u4e86\u6253\u4e0d\u5f00
p1245
F226.48888888888888
sV\u57fa\u91d1\u4e0d\u89c1
p1246
F84.246153846153845
sV\u6709\u7a7a\u8981\u6c42
p1247
F84.246153846153845
sV\u8ffd\u7a76\u6ca1
p1248
F453.75342465753425
sV\u5bc6\u7801\u786e\u5b9a
p1249
F84.246153846153845
sV\u7f16\u7801\u662f
p1250
F84.246153846153845
sV\u8f6f\u4ef6\u8bbe\u7f6e
p1251
F226.48888888888888
sV\u8bf7\u95ee\u4f63\u91d1
p1252
F84.246153846153845
sV\u65b0\u80a1\u7b7e
p1253
F226.48888888888888
sV\u8d26\u53f7\u5fd8\u8bb0
p1254
F595.83419689119171
sV\u64cd\u4f5c\u8d77\u6765
p1255
F226.48888888888888
sV\u662f\u65b0\u80a1\u7533\u8d2d
p1256
F84.246153846153845
sV\u5f00\u901a\u4e0d\u5230
p1257
F84.246153846153845
sV\u80fd\u5426\u50cf
p1258
F84.246153846153845
sV\u79fb\u8d70
p1259
F453.75342465753425
sV\u63d0\u5efa\u8bae
p1260
F84.246153846153845
sV\u67e5\u8be2\u5f00\u6237
p1261
F84.246153846153845
sV\u52a8\u8bf7
p1262
F84.246153846153845
sV\u8bf7\u589e\u52a0
p1263
F84.246153846153845
sV\u4e0d\u4e86\u7834
p1264
F226.48888888888888
sV\u6539\u6210\u83dc\u5355
p1265
F226.48888888888888
sV\u8d60\u9001\u793c\u54c1
p1266
F84.246153846153845
sV\u6263\u770b
p1267
F84.246153846153845
sV\u8fdb\u5165\u7533\u8d2d
p1268
F226.48888888888888
sV\u8d26\u6237\u5fd8\u8bb0
p1269
F168.78082191780823
sV\u79bb\u5f00\u90e8
p1270
F226.48888888888888
sV\u624b\u673a\u53f7\u9a8c\u8bc1
p1271
F84.246153846153845
sV\u89c4\u5b9a\u8981
p1272
F226.48888888888888
sV\u671b\u7b54\u590d
p1273
F226.48888888888888
sV\u8bf7\u63d0\u4f9b
p1274
F84.246153846153845
sV\u4e70\u6da8\u6263
p1275
F226.48888888888888
sV\u53d1\u767b\u5f55
p1276
F84.246153846153845
sV\u662f\u8f6f\u4ef6
p1277
F453.75342465753425
sV\u8fdb\u5165\u754c\u9762
p1278
F84.246153846153845
sV\u5fd8\u8bb0\u8d26\u6237
p1279
F253.60548885077188
sV\u8f6c\u5165\u8bc1\u5238
p1280
F84.246153846153845
sV\u94f6\u8bc1\u8f6c\u5e10
p1281
F17.263698630136986
sV\u5931\u8d25\u9519\u8bef\u7801
p1282
F84.246153846153845
sV\u6709\u65b0\u80a1
p1283
F226.48888888888888
sV\u6570\u636e\u4e0b\u8f7d
p1284
F226.48888888888888
sV\u67e5\u8be2\u8d26\u6237
p1285
F226.48888888888888
sV\u4e0d\u5230\u4e2a\u4eba
p1286
F84.246153846153845
sV\u4ea4\u6613\u4e0d\u4e86
p1287
F453.75342465753425
sV\u9700\u8981\u6295\u653e
p1288
F84.246153846153845
sV\u7ec4\u5408\u8fdb\u53bb
p1289
F226.48888888888888
sV\u6dd8\u91d1\u8bf4
p1290
F84.246153846153845
sV\u4e0d\u80fd\u8d70
p1291
F226.48888888888888
sV\u53bb\u8bc1\u5238\u516c\u53f8
p1292
F226.48888888888888
sV\u8c03\u5927\u770b
p1293
F84.246153846153845
sV\u5988\u6ca1\u4e2d
p1294
F226.48888888888888
sV\u8bf7\u544a\u8bc9
p1295
F84.246153846153845
sV\u8f6f\u4ef6\u653e\u5927
p1296
F453.75342465753425
sV\u624b\u7eed\u8d39\u7387
p1297
F226.48888888888888
sV\u5403\u4e0d\u4f1a
p1298
F226.48888888888888
sV\u662f\u610f\u601d
p1299
F168.78082191780823
sV\u8f6c\u53d1\u9519\u8bef
p1300
F84.246153846153845
sV\u8d2d\u4e70\u521b\u4e1a\u677f
p1301
F84.246153846153845
sV\u5b57\u5e55\u8c03\u5927
p1302
F84.246153846153845
sV\u4fe1\u606f\u53d1\u51fa
p1303
F226.48888888888888
sV\u4f1a\u662f
p1304
F17.263698630136986
sV\u4eb2\u5e10\u6237
p1305
F84.246153846153845
sV\u662f\u53d1\u73b0
p1306
F84.246153846153845
sV\u89c1\u5230\u8d26
p1307
F226.48888888888888
sV\u5fd8\u8bb0\u544a\u8bc9
p1308
F84.246153846153845
sV\u4e0d\u5230\u65b0\u80a1\u7533\u8d2d
p1309
F84.246153846153845
sV\u4e0d\u80fd\u67e5
p1310
F84.246153846153845
sV\u56de\u7b54\u770b\u4e0d\u5230
p1311
F226.48888888888888
sV\u5947\u602a\u5947\u602a
p1312
F226.48888888888888
sV\u5c01\u95ed\u57fa\u91d1
p1313
F84.246153846153845
sV\u5bc6\u7801\u5374\u8bf4
p1314
F226.48888888888888
sV\u624b\u7eed\u8d39\u9884\u4f30
p1315
F226.48888888888888
sV\u592a\u5c0f\u8bbe\u7f6e
p1316
F84.246153846153845
sV\u6ca1\u94b1
p1317
F453.75342465753425
sV\u77e5\u9053\u95ee\u9898
p1318
F226.48888888888888
sV\u5783\u573e\u8981\u6b7b
p1319
F226.48888888888888
sV\u56de\u8bbf\u7535\u8bdd
p1320
F226.48888888888888
sV\u77ed\u4fe1\u901a\u77e5
p1321
F17.263698630136986
sV\u6307\u6570\u6da8\u8dcc
p1322
F226.48888888888888
sV\u5ba2\u6237\u7ecf\u7406\u56de\u8bbf
p1323
F226.48888888888888
sV\u4e0b\u8dcc\u7ed3\u679c
p1324
F226.48888888888888
sV\u8d26\u6237\u53d8\u66f4
p1325
F84.246153846153845
sV\u8bf7\u5e2e\u5fd9
p1326
F84.246153846153845
sV\u7f51\u9875\u8fdb\u4e0d\u53bb
p1327
F226.48888888888888
sV\u53cd\u6620\u73b0\u7528
p1328
F226.48888888888888
sV\u6c42\u9700
p1329
F226.48888888888888
sV\u624b\u7eed\u8d39\u6c9f\u901a
p1330
F453.75342465753425
sV\u964d\u81f3\u516c\u53f8
p1331
F226.48888888888888
sV\u6d88\u8d39\u80a1\u884c
p1332
F84.246153846153845
sV\u53ea\u80fd\u66f4\u6362
p1333
F226.48888888888888
sV\u767b\u5f55\u5b9e\u9645
p1334
F84.246153846153845
sV\u8fd8\u6709\u95ee\u9898
p1335
F226.48888888888888
sV\u5356\u6211\u4f1a
p1336
F226.48888888888888
sV\u6ca1\u6709\u6570\u91cf
p1337
F226.48888888888888
sV\u4f59\u989d\u67e5
p1338
F226.48888888888888
sV\u662f\u53d8\u6210
p1339
F17.263698630136986
sV\u4e0d\u4e86\u5f39\u51fa
p1340
F226.48888888888888
sV\u6ca1\u6709\u6709
p1341
F226.48888888888888
sV\u914d\u552e\u80a1
p1342
F168.78082191780823
sV\u63d0\u793a\u770b\u7740
p1343
F226.48888888888888
sV\u4e0d\u4f1a\u9886\u53d6
p1344
F84.246153846153845
sV\u52a0\u4e0d\u4e86
p1345
F226.48888888888888
sV\u6709\u80a1\u7968
p1346
F84.246153846153845
sV\u7b7e\u7b7e
p1347
F226.48888888888888
sV\u597d\u50cf\u5206\u7ea2
p1348
F84.246153846153845
sV\u5f00\u59cb\u6ca1\u6709
p1349
F84.246153846153845
sV\u62cd\u8eab\u4efd\u8bc1
p1350
F226.48888888888888
sV\u57fa\u91d1\u4e0d\u884c
p1351
F226.48888888888888
sV\u8bbe\u5b9a\u51fa
p1352
F226.48888888888888
sV\u80fd\u5e2e
p1353
F84.246153846153845
sV\u6570\u91cf\u6bd4\u5982
p1354
F226.48888888888888
sV\u4e0d\u4e86\u6ca1\u6362
p1355
F226.48888888888888
sV\u770b\u4e0d\u5230\u80fd
p1356
F226.48888888888888
sV\u4ef7\u683c\u662f
p1357
F84.246153846153845
sV\u54a8\u8be2\u4ea4\u6613
p1358
F84.246153846153845
sV\u6ca1\u5904\u7406
p1359
F226.48888888888888
sV\u529e\u7406\u8d2d\u4e70
p1360
F84.246153846153845
sV\u4e0b\u6ce8\u8f93\u8d62
p1361
F226.48888888888888
sV\u65f6\u5019\u8bf4
p1362
F226.48888888888888
sV\u8d2d\u4e70\u6ca1
p1363
F226.48888888888888
sV\u8f93\u624b\u673a\u53f7
p1364
F226.48888888888888
sV\u8f6c\u5e10\u6570\u636e
p1365
F84.246153846153845
sV\u627e\u56de\u80fd\u5426
p1366
F84.246153846153845
sV\u8981\u8f93
p1367
F226.48888888888888
sV\u6709\u6d88\u606f
p1368
F226.48888888888888
sV\u8fdb\u6765\u663e\u793a
p1369
F84.246153846153845
sV\u662f\u5e2e
p1370
F84.246153846153845
sV\u64cd\u4f5c\u5fd8
p1371
F84.246153846153845
sV\u6ca1\u6709\u6536\u5230
p1372
F3.659233847913093
sV\u54a8\u8be2\u5e08\u662f
p1373
F226.48888888888888
sV\u65b0\u80a1\u901a\u77e5
p1374
F253.60548885077188
sV\u6ca1\u6709\u663e\u793a
p1375
F84.246153846153845
sV\u6765\u80a1\u7968
p1376
F84.246153846153845
sV\u80a1\u53cb\u770b\u770b
p1377
F226.48888888888888
sV\u4e0d\u5230\u67e5\u8be2
p1378
F84.246153846153845
sV\u5f71\u54cd\u5fc3\u60c5
p1379
F226.48888888888888
sV\u4e0d\u53ef\u5217
p1380
F84.246153846153845
sV\u6563\u6237\u7b49\u5230
p1381
F226.48888888888888
sV\u627e\u56de\u8d26\u53f7
p1382
F253.60548885077188
sV\u63ed\u793a\u4e66
p1383
F226.48888888888888
sV\u8fc7\u7a0b\u4e88\u4ee5
p1384
F226.48888888888888
sV\u6536\u76ca\u8ba1\u7b97
p1385
F84.246153846153845
sV\u662f\u6570\u636e
p1386
F226.48888888888888
sV\u9ec4\u91d1\u5f00\u901a
p1387
F84.246153846153845
sV\u6ca1\u4e2d\u7834
p1388
F226.48888888888888
sV\u51fa\u6765\u663e\u6446
p1389
F226.48888888888888
sV\u7533\u8d2d\u8bf7
p1390
F226.48888888888888
sV\u5e2e\u8c03\u6574
p1391
F453.75342465753425
sV\u65e0\u6cd5\u7533\u8d2d
p1392
F453.75342465753425
sV\u586b\u5199\u5bc6\u7801
p1393
F226.48888888888888
sV\u6309\u952e\u5e2e
p1394
F84.246153846153845
sV\u624b\u673a\u6ca1
p1395
F84.246153846153845
sV\u627e\u56de\u6765
p1396
F509.83448275862071
sV\u67e5\u8be2\u80a1\u7968
p1397
F84.246153846153845
sV\u63d0\u9192\u8f93\u9519
p1398
F84.246153846153845
sV\u80fd\u5426\u7535\u8bdd
p1399
F168.78082191780823
sV\u77ed\u4fe1\u8bf4
p1400
F17.263698630136986
sV\u770b\u76d8\u6307\u6807
p1401
F84.246153846153845
sV\u63a2\u4f5c\u53cd\u6620
p1402
F226.48888888888888
sV\u80fd\u5426\u52a0
p1403
F84.246153846153845
sV\u8ba9\u9519\u5931
p1404
F226.48888888888888
sV\u770b\u5230\u56de\u590d
p1405
F84.246153846153845
sV\u63d0\u793a\u770b
p1406
F84.246153846153845
sV\u65e0\u6cd5\u77e5\u9053
p1407
F84.246153846153845
sV\u901a\u77e5\u4f1a
p1408
F84.246153846153845
sV\u767b\u5f55\u8bf4
p1409
F226.48888888888888
sV\u94f6\u884c\u8f6c
p1410
F3.659233847913093
sV\u8981\u54a8\u8be2
p1411
F84.246153846153845
sV\u6709\u8bef\u8bf7
p1412
F226.48888888888888
sV\u6263\u5148\u731c
p1413
F226.48888888888888
sV\u94b1\u53bb
p1414
F84.246153846153845
sV\u529f\u80fd\u53d6\u6d88
p1415
F84.246153846153845
sV\u9001\u8f6c\u80a1
p1416
F226.48888888888888
sV\u6ca1\u9519\u56de
p1417
F84.246153846153845
sV\u6253\u4e0d\u5f00\u8ba9
p1418
F226.48888888888888
sV\u5fd8\u8d26\u53f7
p1419
F168.78082191780823
sV\u5e02\u503c\u8d85\u8fc7
p1420
F84.246153846153845
sV\u5e0c\u671b\u80fd
p1421
F338.7216494845361
sV\u5230\u5f00\u6237
p1422
F84.246153846153845
sV\u6709\u94b1\u77e5\u9053
p1423
F84.246153846153845
sV\u8bb0\u5f55\u6ca1\u6709
p1424
F226.48888888888888
sV\u6295\u987e\u8fde\u627e
p1425
F226.48888888888888
sV\u8981\u5f00\u901a
p1426
F168.78082191780823
sV\u56de\u8d2d\u4ea4\u6613
p1427
F84.246153846153845
sV\u4e70\u5165\u80a1\u7968
p1428
F84.246153846153845
sV\u662f\u53cd\u5e94
p1429
F226.48888888888888
sV\u725b\u8bf4
p1430
F226.48888888888888
sV\u8d26\u53f7\u67e5
p1431
F84.246153846153845
sV\u7ebf\u663e\u793a
p1432
F226.48888888888888
sV\u65e0\u76c8\u4e8f
p1433
F681.79759862778735
sV\u8dcc\u663e\u793a
p1434
F226.48888888888888
sV\u770b\u5230\u6301\u4ed3
p1435
F84.246153846153845
sV\u884c\u60c5\u6362
p1436
F84.246153846153845
sV\u5f00\u6237\u5fd8\u8bb0
p1437
F84.246153846153845
sV\u4eba\u56de\u5e94
p1438
F226.48888888888888
sV\u6d4b\u8bd5\u5410
p1439
F84.246153846153845
sV\u57fa\u91d1\u8d2d
p1440
F84.246153846153845
sV\u5fd8\u8bb0\u627e
p1441
F84.246153846153845
sV\u529f\u80fd\u6bd4\u5982
p1442
F84.246153846153845
sV\u6765\u7cfb\u7edf
p1443
F226.48888888888888
sV\u8fdb\u5165\u8bc1\u5238
p1444
F84.246153846153845
sV\u4e0d\u89c1\u65e9\u77e5
p1445
F226.48888888888888
sV\u8bc1\u5238\u4e0d\u4e86
p1446
F226.48888888888888
sV\u5230\u8f6c\u4e0d
p1447
F84.246153846153845
sV\u56de\u4e8b\u8bdd
p1448
F226.48888888888888
sV\u5ba1\u6838\u8981
p1449
F226.48888888888888
sV\u4e60\u60ef\u5347\u7ea7
p1450
F226.48888888888888
sV\u95ee\u9898\u56de\u7b54
p1451
F168.78082191780823
sV\u7834\u7cfb\u7edf
p1452
F453.75342465753425
sV\u706d\u662f
p1453
F226.48888888888888
sV\u79bb\u804c\u5458\u5de5
p1454
F453.75342465753425
sV\u81ea\u52a8\u79bb\u5f00
p1455
F226.48888888888888
sV\u6ca1\u6709\u80a1\u7968
p1456
F226.48888888888888
sV\u7535\u8bdd\u56de\u8bbf
p1457
F226.48888888888888
sV\u5ba2\u6237\u767b\u5f55
p1458
F84.246153846153845
sV\u6da8\u901f\u6392\u884c
p1459
F84.246153846153845
sV\u5bc6\u7801\u53d6\u56de
p1460
F84.246153846153845
sV\u5230\u4e0d\u884c
p1461
F226.48888888888888
sV\u4e0d\u60f3\u5b66
p1462
F226.48888888888888
sV\u5783\u573e\u51fa
p1463
F226.48888888888888
sV\u4e0d\u80fd\u4eae
p1464
F226.48888888888888
sV\u6dd8\u91d1\u9886\u53d6
p1465
F84.246153846153845
sV\u95ee\u95ee\u9898
p1466
F84.246153846153845
sV\u4e70\u80a1\u7968
p1467
F39.176975945017183
sV\u6d88\u5931\u4e0b\u6ce8
p1468
F226.48888888888888
sV\u4e0d\u5230\u914d\u53f7
p1469
F84.246153846153845
sV\u7ebf\u79fb
p1470
F226.48888888888888
sV\u731c\u5bf9\u8dcc
p1471
F226.48888888888888
sV\u4e70\u521b\u4e1a\u677f
p1472
F84.246153846153845
sV\u67e5\u4e0b\u80a1\u7968
p1473
F146.38993710691824
sV\u65b0\u80a1\u8ba4\u8d2d
p1474
F84.246153846153845
sV\u6392\u5217\u6b21\u5e8f
p1475
F226.48888888888888
sV\u505a\u597d\u8f6f\u4ef6
p1476
F226.48888888888888
sV\u8981\u6c42\u53d1
p1477
F84.246153846153845
sV\u901a\u77e5\u9001
p1478
F84.246153846153845
sV\u662f\u539f\u56e0
p1479
F34.646048109965633
sV\u505c\u6b62\u5565\u610f\u601d
p1480
F84.246153846153845
sV\u8d26\u6237\u5931\u8d25
p1481
F84.246153846153845
sV\u8bf7\u95ee\u8bc1\u5238
p1482
F84.246153846153845
sV\u5f00\u6237\u6295\u987e
p1483
F226.48888888888888
sV\u8bf4\u5956\u52b1
p1484
F84.246153846153845
sV\u6ca1\u6709\u81ea\u9009
p1485
F226.48888888888888
sV\u8f93\u5165\u5bc6\u7801
p1486
F17.263698630136986
sV\u4e0d\u80fd\u4e70
p1487
F84.246153846153845
sV\u6389\u7ebf\u505a
p1488
F226.48888888888888
sV\u589e\u52a0\u6307\u7eb9
p1489
F84.246153846153845
sV\u4e0b\u8f7d\u5ba2\u6237\u7aef
p1490
F84.246153846153845
sV\u5230\u6ca1\u6709
p1491
F226.48888888888888
sV\u4e0d\u4e86\u5173\u6ce8
p1492
F226.48888888888888
sV\u6709\u65f6\u5019
p1493
F226.48888888888888
sV\u94b1\u5230
p1494
F84.246153846153845
sV\u6709\u6ca1\u6709
p1495
F84.246153846153845
sV\u8f6c\u6ca1
p1496
F226.48888888888888
sV\u4e0d\u4e86\u7535\u8bdd\u53f7\u7801
p1497
F226.48888888888888
sV\u95ee\u9898\u6709
p1498
F226.48888888888888
sV\u81ea\u9009\u6dfb\u52a0
p1499
F226.48888888888888
sV\u64cd\u4f5c\u5230
p1500
F226.48888888888888
sV\u5185\u5bb9\u6ca1\u6709
p1501
F226.48888888888888
sV\u5fd8\u8bb0\u5904\u7406
p1502
F168.78082191780823
sV\u5230\u8bc1\u5238
p1503
F17.263698630136986
sV\u4e66\u53bb
p1504
F226.48888888888888
sV\u6ca1\u4e2d\u8d28\u7591
p1505
F226.48888888888888
sV\u624b\u673a\u770b
p1506
F17.263698630136986
sV\u4e0d\u5230\u8fd8\u6709
p1507
F84.246153846153845
sV\u6dd8\u91d1\u5bfc\u51fa
p1508
F84.246153846153845
sV\u76c8\u4e8f\u6263
p1509
F226.48888888888888
sV\u5356\u51fa\u4e0d\u884c
p1510
F226.48888888888888
sV\u53d8\u66f4\u4e0d\u4e86
p1511
F84.246153846153845
sV\u4e0d\u4e86\u5e10\u6237
p1512
F84.246153846153845
sV\u627e\u56de\u8d26\u53f7\u5bc6\u7801
p1513
F84.246153846153845
sV\u662f\u9886\u5bfc
p1514
F226.48888888888888
sV\u7533\u8d2d\u65e0
p1515
F226.48888888888888
sV\u5de5\u5177\u770b
p1516
F84.246153846153845
sV\u4fe1\u606f\u4e0d\u80fd
p1517
F84.246153846153845
sV\u8868\u91cc\u5199
p1518
F84.246153846153845
sV\u5fd8\u8bb0\u8bc1\u5238
p1519
F168.78082191780823
sV\u4e0b\u6ce8\u5956\u52b1
p1520
F226.48888888888888
sV\u76f8\u4fe1\u6ca1\u6709
p1521
F453.75342465753425
sV\u4e86\u8981\u627e\u56de
p1522
F84.246153846153845
sV\u8bf7\u5ba2\u6237
p1523
F226.48888888888888
sV\u53f7\u7801\u9a8c\u8bc1
p1524
F84.246153846153845
sV\u5bfc\u51fa\u5e0c\u671b
p1525
F84.246153846153845
sV\u7cfb\u7edf\u67e5\u4e0d\u5230
p1526
F226.48888888888888
sV\u63d0\u6b3e\u4e0d\u4e86
p1527
F84.246153846153845
sV\u54a8\u8be2\u753b\u9762
p1528
F226.48888888888888
sV\u56de\u7b54\u56de\u590d
p1529
F84.246153846153845
sV\u4e0d\u7528\u5bc6\u7801
p1530
F84.246153846153845
sV\u5e2e\u67e5\u4e0b
p1531
F168.78082191780823
sV\u5e2e\u5f00\u901a
p1532
F84.246153846153845
sV\u8d26\u6237\u767b\u5f55
p1533
F226.48888888888888
sV\u7ef4\u62a4\u95ee\u9898
p1534
F226.48888888888888
sV\u8bbe\u7f6e\u529f\u80fd
p1535
F226.48888888888888
sV\u8981\u8003\u8651
p1536
F226.48888888888888
sV\u5fae\u4fe1\u516c\u4f17
p1537
F226.48888888888888
sV\u66f2\u7ebf\u4e0d\u60f3
p1538
F84.246153846153845
sV\u6dd8\u91d1\u4e0d\u89c1
p1539
F84.246153846153845
sV\u5927\u8f6c\u76d8\u8ba1\u7b97
p1540
F226.48888888888888
sV\u4e0d\u4e86\u65b0\u80a1
p1541
F17.263698630136986
sV\u6536\u76d8\u8dcc
p1542
F226.48888888888888
sV\u4eba\u770b
p1543
F226.48888888888888
sV\u7968\u663e\u793a
p1544
F84.246153846153845
sV\u7ec4\u5408\u4fe1\u606f
p1545
F84.246153846153845
sV\u662f\u5361
p1546
F226.48888888888888
sV\u91cd\u88c5\u4e0d\u80fd
p1547
F226.48888888888888
sV\u4e70\u5165\u4e0d\u4e86
p1548
F84.246153846153845
sV\u8bf7\u56de\u590d
p1549
F226.48888888888888
sV\u8f6c\u5230
p1550
F84.246153846153845
sV\u4f1a\u81ea\u52a8
p1551
F84.246153846153845
sV\u663e\u793a\u5e9f\u5355
p1552
F84.246153846153845
sV\u9006\u56de\u8d2d
p1553
F253.60548885077188
sV\u8fdb\u53bb\u8fdb\u53bb
p1554
F226.48888888888888
sV\u4e0d\u4e86\u94b1
p1555
F84.246153846153845
sV\u5199\u9519\u5bc6\u7801
p1556
F84.246153846153845
sV\u8ba2\u4ea4\u6613
p1557
F84.246153846153845
sV\u4e0d\u4f1a\u9009\u62e9
p1558
F226.48888888888888
sV\u7ec4\u5408\u662f
p1559
F453.75342465753425
sV\u8981\u52a0\u5386\u53f2
p1560
F84.246153846153845
sV\u76f8\u5173\u8d1f\u8d23\u4eba
p1561
F84.246153846153845
sV\u4e0d\u4e86\u63d0\u793a
p1562
F226.48888888888888
sV\u8bc1\u5238\u516c\u53f8\u662f
p1563
F226.48888888888888
sV\u5230\u627e
p1564
F84.246153846153845
sV\u5c0f\u65f6\u53ef
p1565
F226.48888888888888
sV\u8e66\u6ca1\u6709
p1566
F84.246153846153845
sV\u4e70\u670d\u52a1
p1567
F226.48888888888888
sV\u5149\u6263
p1568
F226.48888888888888
sV\u7f16\u53f7\u8bf7
p1569
F168.78082191780823
sV\u8d77\u6ca1\u6709
p1570
F84.246153846153845
sV\u9001\u6765\u4e0d\u5230
p1571
F226.48888888888888
sV\u62bc\u6ce8\u91d1\u5e01
p1572
F226.48888888888888
sV\u7ecf\u7406\u8c01\u6765\u7ba1
p1573
F226.48888888888888
sV\u4e0d\u80fd\u767b\u5f55
p1574
F226.48888888888888
sV\u4e0d\u4e86\u7cfb\u7edf
p1575
F84.246153846153845
sV\u8865\u7f34\u8d39\u7528
p1576
F84.246153846153845
sV\u5f00\u901a\u4e1a\u52a1
p1577
F84.246153846153845
sV\u4fdd\u7559\u6536\u76ca
p1578
F84.246153846153845
sV\u6ca1\u6709\u7535\u8111
p1579
F84.246153846153845
sV\u67e5\u770b\u5230
p1580
F84.246153846153845
sV\u63d0\u4f9b\u76f8\u518c
p1581
F226.48888888888888
sV\u8bf7\u95ee\u65b0\u80a1\u7533\u8d2d
p1582
F84.246153846153845
sV\u4e70\u4e0d\u5165
p1583
F84.246153846153845
sV\u6073\u8bf7\u6765\u4fe1
p1584
F84.246153846153845
sV\u7533\u8d2d\u673a\u4f1a
p1585
F226.48888888888888
sV\u5410\u529f\u80fd
p1586
F84.246153846153845
sV\u6536\u5230\u77ed\u4fe1
p1587
F226.48888888888888
sV\u4e0d\u80fd\u8fdb\u884c
p1588
F226.48888888888888
sV\u770b\u5230\u770b
p1589
F84.246153846153845
sV\u5347\u7ea7\u56fd\u503a
p1590
F84.246153846153845
sV\u624b\u673a\u8f6f\u4ef6\u4e0d\u80fd
p1591
F226.48888888888888
sV\u81ea\u9009\u6ca1\u6709
p1592
F226.48888888888888
sV\u64cd\u4f5c\u63d0\u4ea4
p1593
F226.48888888888888
sV\u80a1\u7968\u4e70
p1594
F253.60548885077188
sV\u65f6\u5019\u6765
p1595
F226.48888888888888
sV\u6536\u76ca\u51fa\u9519
p1596
F226.48888888888888
sV\u7ec4\u5408\u6570\u636e
p1597
F3.659233847913093
sV\u8d1f\u8d23\u4eba\u5ba1\u6279
p1598
F84.246153846153845
sV\u5e10\u53f7\u5bc6\u7801\u5fd8\u8bb0
p1599
F84.246153846153845
sV\u6ce8\u518c\u65f6
p1600
F226.48888888888888
sV\u663e\u793a\u7cfb\u7edf
p1601
F226.48888888888888
sV\u6ca1\u4e70\u5356
p1602
F226.48888888888888
sV\u5bc6\u7801\u64cd\u7eb5
p1603
F226.48888888888888
sV\u6ca1\u89e3\u51b3
p1604
F226.48888888888888
sV\u80a1\u606f\u8865\u7f34
p1605
F84.246153846153845
sV\u7ebf\u770b
p1606
F84.246153846153845
sV\u5b89\u88c5\u662f
p1607
F84.246153846153845
sV\u8d2d\u4e70\u6536\u76ca
p1608
F84.246153846153845
sV\u624b\u7eed\u8d39\u5e2e
p1609
F453.75342465753425
sV\u8bf7\u6838\u5b9e
p1610
F226.48888888888888
sV\u4ea4\u6613\u8d39
p1611
F226.48888888888888
sV\u4fe1\u606f\u95ea\u9000
p1612
F226.48888888888888
sV\u5356\u51fa\u770b\u4e0d\u5230
p1613
F84.246153846153845
sV\u8fdb\u5165\u8981
p1614
F226.48888888888888
sV\u5347\u7ea7\u5230
p1615
F226.48888888888888
sV\u5ba2\u6237\u7aef\u6539
p1616
F226.48888888888888
sV\u767b\u5f55\u8d26\u53f7
p1617
F84.246153846153845
sV\u4e70\u57fa\u91d1
p1618
F453.75342465753425
sV\u77e5\u9053\u662f\u5426
p1619
F17.263698630136986
sV\u8d5a\u5012
p1620
F226.48888888888888
sV\u6539\u5230\u4e60\u60ef
p1621
F226.48888888888888
sV\u8f6c\u8bc1\u5238
p1622
F17.263698630136986
sV\u529f\u80fd\u4e0d\u80fd
p1623
F226.48888888888888
sV\u770b\u4e0d\u4e86
p1624
F146.38993710691824
sV\u7f51\u4e0a\u4ea4\u6613\u670d\u52a1
p1625
F84.246153846153845
sV\u8981\u53ea\u80fd
p1626
F226.48888888888888
sV\u53d1\u73b0\u624b\u673a\u53f7
p1627
F84.246153846153845
sV\u6ca1\u65f6\u95f4
p1628
F226.48888888888888
sV\u505c\u7b97\u4e86
p1629
F226.48888888888888
sV\u5e0c\u671b\u589e\u52a0
p1630
F84.246153846153845
sV\u6210\u4ea4\u77ed\u4fe1
p1631
F226.48888888888888
sV\u7533\u8bf7\u964d\u4f4e
p1632
F453.75342465753425
sV\u8d1f\u8d23\u8d26\u6237
p1633
F84.246153846153845
sV\u77ed\u4fe1\u53d1\u9001
p1634
F226.48888888888888
sV\u6ca1\u6709\u662f
p1635
F84.246153846153845
sV\u52a0\u5165\u6da8\u901f
p1636
F84.246153846153845
sV\u8d44\u91d1\u76d1\u63a7
p1637
F226.48888888888888
sV\u7f16\u53f7\u662f
p1638
F253.60548885077188
sV\u4e70\u8bb0\u5f55
p1639
F226.48888888888888
sV\u8f6c\u4e0d\u8fdb\u8bc1\u5238
p1640
F226.48888888888888
sV\u662f\u5230
p1641
F226.48888888888888
sV\u770b\u884c\u60c5
p1642
F17.263698630136986
sV\u64cd\u7eb5\u8d26\u6237
p1643
F226.48888888888888
sV\u624d\u80fd\u77e5\u9053
p1644
F84.246153846153845
sV\u63d0\u4ea4\u5931\u8d25
p1645
F226.48888888888888
sV\u964d\u4f4e\u624b\u7eed\u8d39
p1646
F226.48888888888888
sV\u4e0d\u80fd\u65b0\u80a1\u7533\u8d2d
p1647
F84.246153846153845
sV\u635f\u574f\u4e0b\u8f7d
p1648
F84.246153846153845
sV\u589e\u52a0\u7ad9\u70b9
p1649
F84.246153846153845
sV\u6253\u4e0d\u5f00\u4e0b\u8f7d\u9875
p1650
F226.48888888888888
sV\u624b\u673a\u53f7\u662f
p1651
F84.246153846153845
sV\u5f00\u8fc7\u6237
p1652
F84.246153846153845
sV\u670d\u52a1\u7535\u8bdd
p1653
F226.48888888888888
sV\u5927\u76d8\u662f\u8dcc
p1654
F226.48888888888888
sV\u4e0d\u80fd\u505a\u5f97\u597d
p1655
F226.48888888888888
sV\u57fa\u91d1\u67e5\u4e0d\u5230
p1656
F84.246153846153845
sV\u63a7\u4ef6\u5b89\u88c5
p1657
F226.48888888888888
sV\u662f\u9189
p1658
F453.75342465753425
sV\u5931\u8d25\u8ba9
p1659
F226.48888888888888
sV\u903c\u5168\u4e16\u754c
p1660
F226.48888888888888
sV\u8d44\u8baf\u6ca1\u53d1
p1661
F84.246153846153845
sV\u5347\u4f4d\u624b\u7eed
p1662
F226.48888888888888
sV\u6dfb\u52a0\u6307\u7eb9
p1663
F84.246153846153845
sV\u7533\u8d2d\u4ecb\u9762
p1664
F226.48888888888888
sV\u95ee\u4f63\u91d1
p1665
F226.48888888888888
sV\u662f\u5751\u4eba
p1666
F226.48888888888888
sV\u52a8\u6001\u53ef\u5426
p1667
F226.48888888888888
sV\u7cfb\u7edf\u63d0\u793a
p1668
F84.246153846153845
sV\u7f16\u53f7\u63d0\u4f9b
p1669
F84.246153846153845
sV\u7ec4\u5408\u4fdd\u6301
p1670
F84.246153846153845
sV\u662f\u5272\u8089
p1671
F226.48888888888888
sV\u9700\u7ef4\u62a4
p1672
F226.48888888888888
sV\u770b\u5230\u6536\u76ca
p1673
F168.78082191780823
sV\u5931\u8d25\u60c5\u51b5
p1674
F226.48888888888888
sV\u80fd\u5426\u89e3\u51b3
p1675
F226.48888888888888
sV\u56de\u8d2d\u64cd\u4f5c
p1676
F84.246153846153845
sV\u6ca1\u4eba
p1677
F226.48888888888888
sV\u767b\u5f55\u6709
p1678
F226.48888888888888
sV\u7b7e\u7533\u8d2d
p1679
F226.48888888888888
sV\u7d2f\u79ef\u4e8f\u76c8
p1680
F84.246153846153845
sV\u77ed\u4fe1\u6709
p1681
F84.246153846153845
sV\u6295\u6ce8\u5927\u76d8
p1682
F226.48888888888888
sV\u505c\u7559\u6ca1\u6709
p1683
F84.246153846153845
sV\u7ec4\u5408\u5f71\u54cd
p1684
F226.48888888888888
sV\u63d0\u9192\u5ba2\u6237
p1685
F226.48888888888888
sV\u67e5\u770b\u529f\u80fd
p1686
F84.246153846153845
sV\u63a8\u79bb\u804c
p1687
F453.75342465753425
sV\u80fd\u63d0\u793a
p1688
F84.246153846153845
sV\u6d3b\u52a8\u7cfb\u7edf
p1689
F226.48888888888888
sV\u51fa\u5f71\u54cd
p1690
F226.48888888888888
sV\u5bc6\u7801\u6ca1\u9519
p1691
F84.246153846153845
sV\u7edf\u8ba1\u4e0a\u7528
p1692
F226.48888888888888
sV\u4fe1\u606f\u80fd
p1693
F84.246153846153845
sV\u80fd\u5426\u5e2e
p1694
F84.246153846153845
sV\u6ca1\u6709\u5de5\u5177
p1695
F84.246153846153845
sV\u8bf7\u56de\u7b54
p1696
F84.246153846153845
sV\u4e0d\u80fd\u767b\u9646
p1697
F84.246153846153845
sV\u7ec4\u5408\u505c\u7559
p1698
F84.246153846153845
sV\u66f4\u6539\u7528\u6237\u540d
p1699
F84.246153846153845
sV\u8981\u5929\u624d
p1700
F226.48888888888888
sV\u6536\u76d8\u7edf\u8ba1
p1701
F226.48888888888888
sV\u5220\u6389\u53d1\u8a00
p1702
F84.246153846153845
sV\u95ee\u9898\u8bf4
p1703
F226.48888888888888
sV\u77e5\u9053\u5f00\u901a
p1704
F84.246153846153845
sV\u8eab\u4efd\u8bc1\u505a\u4e0d\u4e86
p1705
F226.48888888888888
sV\u8d26\u6237\u7ba1\u7406
p1706
F84.246153846153845
sV\u8bf4\u5408\u5e76
p1707
F226.48888888888888
sV\u8d44\u6599\u662f
p1708
F226.48888888888888
sV\u6709\u6295\u987e
p1709
F226.48888888888888
sV\u8d62\u5927\u76d8
p1710
F226.48888888888888
sV\u52a0\u8f7d\u51fa\u9519
p1711
F226.48888888888888
sV\u8ba9\u770b\u5230
p1712
F84.246153846153845
sV\u8865\u4e70\u70b9
p1713
F84.246153846153845
sV\u770b\u4e0d\u5230\u4e70
p1714
F226.48888888888888
sV\u5e7f\u544a\u90e8\u6709
p1715
F84.246153846153845
sV\u8425\u4e1a\u5385\u6ca1
p1716
F226.48888888888888
sV\u5b57\u4f53\u5927\u5c0f\u8c03\u8282
p1717
F84.246153846153845
sV\u901a\u5e10\u6237
p1718
F84.246153846153845
sV\u8d26\u6237\u8f93\u5165
p1719
F226.48888888888888
sV\u6743\u9650\u7533\u8d2d
p1720
F84.246153846153845
sV\u4f5c\u5e9f\u662f
p1721
F84.246153846153845
sV\u8981\u62a5\u8b66
p1722
F226.48888888888888
sV\u8d28\u7591\u662f\u5426
p1723
F226.48888888888888
sV\u6765\u81ea\u4fe1\u7aef
p1724
F84.246153846153845
sV\u5e2e\u52a9\u89e3\u51b3\u95ee\u9898
p1725
F226.48888888888888
sV\u8bf7\u8054\u7cfb
p1726
F84.246153846153845
sV\u5012\u4e8f\u4e86
p1727
F226.48888888888888
sV\u53d8\u66f4\u4fee\u6539
p1728
F84.246153846153845
sV\u8865\u8bf7\u89e3\u51b3
p1729
F226.48888888888888
sV\u6da8\u8dcc\u65e0
p1730
F226.48888888888888
sV\u6ca1\u5fd8\u8bb0
p1731
F84.246153846153845
sV\u6c92\u4e2d\u65b0\u80a1
p1732
F226.48888888888888
sV\u770b\u54ed
p1733
F226.48888888888888
sV\u77e5\u9053\u7248\u9762
p1734
F84.246153846153845
sV\u662f\u505c
p1735
F226.48888888888888
sV\u5904\u7406\u4e0a\u4f20
p1736
F226.48888888888888
sV\u6539\u56de
p1737
F84.246153846153845
sV\u4e0d\u80fd\u6253
p1738
F84.246153846153845
sV\u65b0\u80a1\u7533\u8d2d\u80fd
p1739
F84.246153846153845
sV\u662f\u5e0c\u671b
p1740
F226.48888888888888
sV\u7b7e\u6709
p1741
F84.246153846153845
sV\u8bf7\u95ee\u5b57\u5e55
p1742
F84.246153846153845
sV\u6ca1\u6709\u6307\u5f15
p1743
F84.246153846153845
sV\u9519\u63d0\u9192
p1744
F84.246153846153845
sV\u8bf4\u8d1f
p1745
F453.75342465753425
sV\u4e0d\u7406\u95ee\u80a1
p1746
F226.48888888888888
sV\u597d\u7528\u9000\u6b65
p1747
F226.48888888888888
sV\u80a1\u7968\u6709\u6ca1\u6709
p1748
F84.246153846153845
sV\u67e5\u770b\u4fe1\u606f
p1749
F84.246153846153845
sV\u901a\u641e
p1750
F84.246153846153845
sV\u8d23\u4efb\u63a8
p1751
F453.75342465753425
sV\u770b\u7740\u8d54\u507f
p1752
F226.48888888888888
sV\u5bc6\u7801\u5fd8
p1753
F84.246153846153845
sV\u5fd8\u8bb0\u7528\u6237\u540d
p1754
F84.246153846153845
sV\u65e0\u6cd5\u767b\u5f55
p1755
F146.38993710691824
sV\u5fd8\u627e
p1756
F84.246153846153845
sV\u4ea4\u6613\u6dfb\u52a0
p1757
F84.246153846153845
sV\u6dd8\u91d1\u6301\u80a1
p1758
F226.48888888888888
sV\u6ca1\u6709\u8981
p1759
F226.48888888888888
sV\u4f1a\u53d1\u751f
p1760
F226.48888888888888
sV\u4e70\u5356
p1761
F84.246153846153845
sV\u9002\u5408\u6027
p1762
F226.48888888888888
sV\u8bc1\u5238\u516c\u53f8\u7533\u8d2d
p1763
F226.48888888888888
sV\u9001\u67e5\u4e0d\u5230
p1764
F84.246153846153845
sV\u663e\u793a\u5b9e\u9645
p1765
F226.48888888888888
sV\u8bf7\u95ee\u7f51\u9875
p1766
F84.246153846153845
sV\u4e70\u592a\u9633\u80fd
p1767
F84.246153846153845
sV\u4ea4\u6613\u51c6\u5907
p1768
F226.48888888888888
sV\u6ca1\u6709\u7ed9\u6211\u53d1
p1769
F84.246153846153845
sV\u6cc4\u9732\u5ba2\u6237
p1770
F226.48888888888888
sV\u6362\u5199
p1771
F226.48888888888888
sV\u96c6\u56e2\u6362\u6210
p1772
F84.246153846153845
sV\u4e0a\u4f20\u5f55\u50cf
p1773
F226.48888888888888
sV\u770b\u5230\u95ee\u9898
p1774
F84.246153846153845
sV\u6362\u6389\u7834\u89e3
p1775
F226.48888888888888
sV\u63d0\u95ee\u6709
p1776
F84.246153846153845
sV\u95ee\u9898\u6ca1
p1777
F453.75342465753425
sV\u63d0\u4f9b\u624b\u673a\u53f7
p1778
F84.246153846153845
sV\u5fd8\u8bb0\u767b\u5f55
p1779
F84.246153846153845
sV\u9700\u8981\u624b\u7eed
p1780
F84.246153846153845
sV\u624b\u673a\u663e\u793a
p1781
F84.246153846153845
sV\u662f\u8fd8\u6709
p1782
F84.246153846153845
sV\u767b\u9646\u4e0d\u4e86
p1783
F453.75342465753425
sV\u9886\u53d6\u8d60\u9001
p1784
F84.246153846153845
sV\u8f6c\u4e0d\u51fa\u6765
p1785
F168.78082191780823
sV\u63d0\u793a\u5b89\u88c5
p1786
F226.48888888888888
sV\u53ef\u501f\u9274
p1787
F84.246153846153845
sV\u7533\u8d2d\u6b7b\u673a
p1788
F226.48888888888888
sV\u8bf7\u95ee\u6ca1\u6709
p1789
F84.246153846153845
sV\u53d6\u6b3e\u662f
p1790
F84.246153846153845
sV\u9875\u9762\u6253\u5f00
p1791
F226.48888888888888
sV\u4e0b\u8f7d\u80a1\u7968\u8f6f\u4ef6
p1792
F84.246153846153845
sV\u53bb\u8425\u4e1a\u5385
p1793
F17.263698630136986
sV\u8d26\u53f7\u5bc6\u7801\u5fd8\u8bb0
p1794
F168.78082191780823
sV\u952e\u5e94\u8be5
p1795
F226.48888888888888
sV\u65f6\u5019\u6ca1\u6709
p1796
F84.246153846153845
sV\u7535\u8bdd\u6253\u4e0d\u8fdb
p1797
F84.246153846153845
sV\u6ca1\u6709\u6ce8\u518c
p1798
F226.48888888888888
sV\u6263\u53c2\u4e0e
p1799
F226.48888888888888
sV\u662f\u7f3a\u9677
p1800
F226.48888888888888
sV\u5206\u6790\u5dee\u5dee
p1801
F226.48888888888888
sV\u663e\u793a\u76c8\u4e8f
p1802
F84.246153846153845
sV\u914d\u53f7\u4e0d\u80fd
p1803
F84.246153846153845
sV\u663e\u793a\u5bc6\u7801
p1804
F17.263698630136986
sV\u7533\u8d2d\u65b0\u80a1
p1805
F78.896193771626301
sV\u662f\u5426\u5b58\u5728
p1806
F226.48888888888888
sV\u5ba2\u6237\u5fd8
p1807
F84.246153846153845
sV\u94a2\u955a\u4e86\u6ca1\u6709
p1808
F84.246153846153845
sV\u51fa\u73b0\u7ef4\u62a4
p1809
F226.48888888888888
sV\u5e2e\u5fd9\u53d1
p1810
F84.246153846153845
sV\u7ed1\u5b9a\u94f6\u884c
p1811
F84.246153846153845
sV\u8d26\u6237\u4f7f\u7528
p1812
F84.246153846153845
sV\u6bd4\u5982\u4e70\u5165
p1813
F226.48888888888888
sV\u663e\u793a\u8bc4\u6d4b
p1814
F84.246153846153845
sV\u5bc6\u7801\u767b\u9646
p1815
F226.48888888888888
sV\u5e9f\u5355\u8bf7
p1816
F84.246153846153845
sV\u5207\u6362\u7ebf
p1817
F84.246153846153845
sV\u4e0d\u7528\u8bb0\u5f97
p1818
F84.246153846153845
sV\u95ee\u80a1\u6ca1
p1819
F226.48888888888888
sV\u5fd8\u8bb0\u8981
p1820
F84.246153846153845
sV\u770b\u5230\u7535\u8111
p1821
F84.246153846153845
sV\u624b\u673a\u5fd8\u8bb0
p1822
F168.78082191780823
sV\u4ef7\u683c\u4e0d\u7b26
p1823
F226.48888888888888
sV\u56fd\u503a\u8ba1\u5165
p1824
F84.246153846153845
sV\u6709\u6280\u5de7
p1825
F84.246153846153845
sV\u6d4b\u8bc4\u6253\u5206
p1826
F84.246153846153845
sV\u7ed1\u5b9a\u7f16\u53f7
p1827
F84.246153846153845
sV\u8d70\u70b9\u5fc3
p1828
F226.48888888888888
sV\u5931\u8d25\u6ca1
p1829
F226.48888888888888
sV\u5f00\u6237\u6ca1\u6709
p1830
F84.246153846153845
sV\u65f6\u5019\u63d0\u4ea4
p1831
F226.48888888888888
sV\u5bc6\u7801\u8bb0\u5f97
p1832
F84.246153846153845
sV\u65b0\u80a1\u7533\u8d2d\u662f
p1833
F84.246153846153845
sV\u4e3b\u9875\u641e\u597d
p1834
F226.48888888888888
sV\u9a8c\u8bc1\u624b\u673a
p1835
F84.246153846153845
sV\u53c2\u4e0e\u4e0b\u6ce8
p1836
F226.48888888888888
sV\u663e\u793a\u5e38\u89c4
p1837
F84.246153846153845
sV\u7f51\u7edc\u5ef6\u8fdf
p1838
F226.48888888888888
sV\u5927\u76d8\u4e0b\u8dcc
p1839
F910.62542955326455
sV\u754c\u9762\u8bbe\u7f6e
p1840
F84.246153846153845
sV\u8bf7\u95ee\u5bc6\u7801
p1841
F84.246153846153845
sV\u63d0\u51fa\u6765
p1842
F84.246153846153845
sV\u6709\u5151\u6362
p1843
F226.48888888888888
sV\u72b6\u6001\u4f5c\u5e9f
p1844
F84.246153846153845
sV\u83dc\u5355\u9000\u56de
p1845
F84.246153846153845
sV\u5f00\u6237\u64cd\u4f5c
p1846
F226.48888888888888
sV\u7f16\u53f7\u627e
p1847
F84.246153846153845
sV\u8981\u67e5
p1848
F84.246153846153845
sV\u7b7e\u5230\u8868\u91cc
p1849
F84.246153846153845
sV\u63a5\u6536\u4e0d\u5230
p1850
F226.48888888888888
sV\u8d26\u53f7\u663e\u793a
p1851
F84.246153846153845
sV\u8bc4\u4f30\u6ca1\u6709
p1852
F84.246153846153845
sV\u662f\u9009\u51fa
p1853
F84.246153846153845
sV\u64cd\u4f5c\u80a1\u5e02
p1854
F226.48888888888888
sV\u7f51\u770b
p1855
F84.246153846153845
sV\u56de\u7b54\u6536\u4e0d\u5230
p1856
F84.246153846153845
sV\u4e00\u952e\u7533\u8d2d
p1857
F226.48888888888888
sV\u4f1a\u6f0f
p1858
F84.246153846153845
sV\u8f6c\u4e0d\u51fa\u662f
p1859
F226.48888888888888
sV\u624b\u673a\u64cd\u4f5c
p1860
F453.75342465753425
sV\u63d0\u793a\u5bc6\u7801
p1861
F226.48888888888888
sV\u5fd8\u8bb0\u5bc6\u7801
p1862
F338.7216494845361
sV\u8d5a\u662f
p1863
F226.48888888888888
sV\u7248\u9762\u8bbe\u8ba1\u53c2\u8003
p1864
F226.48888888888888
sV\u5173\u6ce8\u7c89\u4e1d
p1865
F84.246153846153845
sV\u5e10\u53f7\u627e\u56de
p1866
F84.246153846153845
sV\u8ba2\u5355\u6ca1\u6709
p1867
F226.48888888888888
sV\u5408\u4f5c\u6dd8\u91d1
p1868
F84.246153846153845
sV\u4e0a\u4f20\u8eab\u4efd\u8bc1
p1869
F226.48888888888888
sV\u8d4e\u56de\u4e0d\u4e86
p1870
F84.246153846153845
sV\u95ee\u9898\u6253\u76d8
p1871
F226.48888888888888
sV\u6280\u672f\u6307\u6807\u7f3a
p1872
F226.48888888888888
sV\u60f3\u95ee
p1873
F17.263698630136986
sV\u8d26\u53f7\u767b\u4e0d\u4e0a
p1874
F84.246153846153845
sV\u8f6f\u4ef6\u81ea\u52a8
p1875
F84.246153846153845
sV\u63d0\u4f9b\u5e10\u53f7
p1876
F84.246153846153845
sV\u6ca1\u4e2d\u4eba\u5bb6
p1877
F226.48888888888888
sV\u5230\u8d2d\u4e70
p1878
F84.246153846153845
sV\u8bf7\u95ee\u67e5
p1879
F84.246153846153845
sV\u7b49\u5f85\u56de
p1880
F226.48888888888888
sV\u98ce\u9669\u6d4b\u8bd5
p1881
F84.246153846153845
sV\u5931\u8d25\u63d0\u793a
p1882
F226.48888888888888
sV\u8bf4\u597d\u6709
p1883
F226.48888888888888
sV\u901a\u77e5\u8d2d\u4e70
p1884
F84.246153846153845
sV\u6da8\u8dcc\u4e0d\u89c1
p1885
F226.48888888888888
sV\u6ca1\u6709\u5de5\u5177\u680f
p1886
F226.48888888888888
sV\u53d1\u51fa\u6ca1
p1887
F226.48888888888888
sV\u770b\u4e0d\u5230\u624b\u673a
p1888
F226.48888888888888
sV\u8f6f\u4ef6\u5347\u7ea7
p1889
F84.246153846153845
sV\u770b\u7740\u96be\u53d7
p1890
F226.48888888888888
sV\u4e0d\u80fd\u63d0\u4f9b
p1891
F226.48888888888888
sV\u53cd\u6620\u8ba9
p1892
F226.48888888888888
sV\u6dd8\u91d1\u4e0d\u4f1a
p1893
F84.246153846153845
sV\u95ee\u5c01\u95ed
p1894
F84.246153846153845
sV\u4e0d\u89c1\u53d8\u52a8
p1895
F84.246153846153845
sV\u8ba1\u7b97\u80fd
p1896
F84.246153846153845
sV\u5e94\u8be5\u662f
p1897
F226.48888888888888
sV\u64cd\u4f5c\u89c6\u89c9
p1898
F226.48888888888888
sV\u5458\u5de5\u4e0d\u60f3
p1899
F453.75342465753425
sV\u6ca1\u6709\u8001\u677f\u952e
p1900
F226.48888888888888
sV\u8ba1\u5165\u56fd\u503a
p1901
F84.246153846153845
sV\u641e\u8bf4\u597d
p1902
F226.48888888888888
sV\u5fd8\u6709
p1903
F84.246153846153845
sV\u63d0\u793a\u5f00\u901a
p1904
F84.246153846153845
sV\u4e70\u503a\u5238
p1905
F84.246153846153845
sV\u5ba2\u6237\u7aef\u4e0d\u4e86
p1906
F226.48888888888888
sV\u624b\u673a\u6362
p1907
F84.246153846153845
sV\u8bf7\u67e5
p1908
F84.246153846153845
sV\u663e\u793a\u51bb\u7ed3
p1909
F84.246153846153845
sV\u51bb\u7ed3\u8bf7\u95ee
p1910
F84.246153846153845
sV\u7167\u7247\u4e0a\u4f20
p1911
F226.48888888888888
sV\u7b7e\u5230\u627e
p1912
F84.246153846153845
sV\u5bc6\u7801\u5e94\u8be5
p1913
F84.246153846153845
sV\u613f\u610f\u624b\u673a
p1914
F226.48888888888888
sV\u5356\u4e0d\u6389\u635f\u5931
p1915
F226.48888888888888
sV\u5356\u662f
p1916
F84.246153846153845
sV\u7248\u9762\u4e0d\u4f1a
p1917
F226.48888888888888
sV\u7c89\u4e1d\u6c9f\u901a
p1918
F84.246153846153845
sV\u6210\u672c\u4ef7\u663e\u793a
p1919
F84.246153846153845
sV\u94f6\u884c\u8f6c\u4e0d
p1920
F84.246153846153845
sV\u9a8c\u8bc1\u6d4b\u8bd5
p1921
F168.78082191780823
sV\u8bc1\u8f6c
p1922
F168.78082191780823
sV\u5b89\u88c5\u63a7\u4ef6
p1923
F226.48888888888888
sV\u516c\u53f8\u8fd8\u6709
p1924
F226.48888888888888
sV\u77e5\u9053\u5ba2\u670d
p1925
F84.246153846153845
sV\u8bf4\u5c0f\u65f6
p1926
F453.75342465753425
sV\u51fa\u6765\u662f
p1927
F3.659233847913093
sV\u65f6\u5019\u80fd
p1928
F226.48888888888888
sV\u8fdb\u6c34\u624b\u673a
p1929
F84.246153846153845
sV\u4e70\u4e0d\u5230\u65f6\u5019
p1930
F226.48888888888888
sV\u8981\u56de\u5230
p1931
F84.246153846153845
sV\u6ca1\u6709\u6ca1
p1932
F226.48888888888888
sV\u770b\u770b\u4e0d\u6e05
p1933
F226.48888888888888
sV\u5e2e\u67e5
p1934
F168.78082191780823
sV\u53d8\u52a8\u7b97
p1935
F84.246153846153845
sV\u663e\u793a\u4ea4\u6613
p1936
F84.246153846153845
sV\u533a\u5206\u4e70
p1937
F84.246153846153845
sV\u8d26\u6237\u8981
p1938
F226.48888888888888
sV\u7834\u89e3\u4e0d\u4e86
p1939
F226.48888888888888
sV\u770b\u5230\u7b7e\u5230
p1940
F84.246153846153845
sV\u8981\u6c42\u5b57
p1941
F84.246153846153845
sV\u8d26\u6237\u7533\u8d2d
p1942
F168.78082191780823
sV\u4e0d\u89c1\u770b\u5230
p1943
F84.246153846153845
sV\u8bf4\u7f3a\u5c11
p1944
F226.48888888888888
sV\u53f7\u7801\u53d6\u6d88
p1945
F84.246153846153845
sV\u6ca1\u53d8\u5316
p1946
F226.48888888888888
sV\u6295\u6ce8\u6ca1
p1947
F226.48888888888888
sV\u6ca1\u4fe1\u606f
p1948
F226.48888888888888
sV\u56de\u8d2d\u8ba1\u5165
p1949
F84.246153846153845
sV\u7533\u8d2d\u4e0d\u4e86
p1950
F84.246153846153845
sV\u4e0d\u4f1a\u8d5a\u94b1
p1951
F226.48888888888888
sV\u5e10\u53f7\u4e22
p1952
F84.246153846153845
sV\u5fd8\u5e10\u53f7
p1953
F84.246153846153845
sV\u9001\u8981
p1954
F84.246153846153845
sV\u5e94\u8be5\u6709
p1955
F84.246153846153845
sV\u81ea\u9009\u80a1\u4e0d\u884c
p1956
F84.246153846153845
sV\u5927\u76d8\u4e0a\u6da8
p1957
F226.48888888888888
sV\u5ba2\u6237\u7aef\u5fd8\u8bb0
p1958
F84.246153846153845
sV\u53d8\u5316\u800d
p1959
F226.48888888888888
sV\u6ca1\u505a\u597d
p1960
F226.48888888888888
sV\u663e\u793a\u5386\u53f2
p1961
F84.246153846153845
sV\u6b7b\u4e70\u5165
p1962
F226.48888888888888
sV\u505a\u5f97\u597d\u5f00
p1963
F226.48888888888888
sV\u544a\u77e5\u63d0\u4f9b
p1964
F84.246153846153845
sV\u53cd\u4eba\u7c7b
p1965
F226.48888888888888
sV\u4f5c\u5e9f\u4e0d\u5230
p1966
F226.48888888888888
sV\u63a8\u51fa\u529f\u80fd
p1967
F84.246153846153845
sV\u6709\u6ca1
p1968
F226.48888888888888
sV\u5168\u4e16\u754c\u662f
p1969
F226.48888888888888
sV\u5c55\u793a\u60f3
p1970
F84.246153846153845
sV\u662f\u51fa\u9519
p1971
F226.48888888888888
sV\u4e0d\u60f3\u53bb
p1972
F453.75342465753425
sV\u6dfb\u52a0\u81ea\u9009
p1973
F17.263698630136986
sV\u8bbe\u7f6e\u5783\u573e
p1974
F226.48888888888888
sV\u95ee\u9898\u8865\u8bf7
p1975
F226.48888888888888
sV\u5fd8\u8bb0\u4e86\u8981
p1976
F84.246153846153845
sV\u82f9\u679c\u7535\u8111\u6709\u6ca1\u6709
p1977
F226.48888888888888
sV\u7535\u8111\u5bfc\u5165
p1978
F84.246153846153845
sV\u4eba\u5de5\u670d\u52a1
p1979
F84.246153846153845
sV\u4e0b\u8f7d\u4e0b\u8f7d
p1980
F226.48888888888888
sV\u6709\u732b\u817b
p1981
F226.48888888888888
sV\u6743\u9650\u4e0d\u80fd
p1982
F84.246153846153845
sV\u5f00\u901a\u521b\u4e1a\u677f
p1983
F338.7216494845361
sV\u662f\u8dcc\u8bf4
p1984
F226.48888888888888
sV\u4f63\u91d1\u53d8\u5316
p1985
F226.48888888888888
sV\u5b9e\u76d8\u7ec4\u5408
p1986
F0.056974294142435739
sV\u731c\u4e2d\u6263
p1987
F226.48888888888888
sV\u4e70\u6838\u5fc3
p1988
F84.246153846153845
sV\u8bf7\u8be6\u7ec6\u63cf\u8ff0
p1989
F84.246153846153845
sV\u5e0c\u671b\u770b\u5230
p1990
F84.246153846153845
sV\u7ed1\u5b9a\u8eab\u4efd\u8bc1
p1991
F84.246153846153845
sV\u6709\u63d0\u793a
p1992
F168.78082191780823
sV\u8bf7\u63a8\u9001
p1993
F226.48888888888888
sV\u6d41\u5165\u6d41\u51fa
p1994
F226.48888888888888
sV\u95ee\u9898\u4f1a
p1995
F226.48888888888888
sV\u6536\u76ca\u6392\u540d
p1996
F226.48888888888888
sV\u5f00\u8f6f\u4ef6
p1997
F226.48888888888888
sV\u4fe1\u606f\u8fd8\u6709
p1998
F226.48888888888888
s.