(dp1
V\u53cd\u9988\u610f\u89c1
p2
F73.744878957169462
sV\u7f16\u53f7\u5fd8
p3
F147.76492537313433
sV\u53f7\u7801\u5347\u4f4d
p4
F73.744878957169462
sV\u67e5\u5462
p5
F73.744878957169462
sV\u4e86\u7834\u89e3
p6
F214.00558659217876
sV\u878d\u8d44\u6b3e
p7
F73.744878957169462
sV\u6da8\u8dcc\u6d3b\u52a8
p8
F428.80970149253733
sV\u63d0\u73b0\u4e5f
p9
F73.744878957169462
sV\u9000\u6b65\u554a
p10
F214.00558659217876
sV\u4e86\u8981\u5356
p11
F214.00558659217876
sV\u9ad8\u770b\u6765
p12
F214.00558659217876
sV\u641e\u597d\u4e86
p13
F214.00558659217876
sV\u81ea\u9009\u80a1\u627e
p14
F214.00558659217876
sV\u6d3b\u52a8\u731c\u5bf9
p15
F214.00558659217876
sV\u6211\u66f4\u6362
p16
F73.744878957169462
sV\u65b0\u80a1\u7533\u8d2d\u4e0d\u4e86
p17
F73.744878957169462
sV\u600e\u4e48\u4f1a
p18
F18.28358208955224
sV\u6ca1\u6709\u5ba2\u6237\u7aef
p19
F214.00558659217876
sV\u9001\u7684
p20
F214.00558659217876
sV\u7ef4\u62a4\u4e2d
p21
F214.00558659217876
sV\u540c\u82b1\u987a\u5408\u4f5c
p22
F73.744878957169462
sV\u8981\u600e\u6837\u624d\u80fd
p23
F73.744878957169462
sV\u5b66\u5931\u671b
p24
F214.00558659217876
sV\u662f\u591a\u5c11
p25
F673.74102079395084
sV\u8bf4\u7684
p26
F428.80970149253733
sV\u6536\u53d6\u7684
p27
F73.744878957169462
sV\u8d44\u91d1\u6d41\u5165
p28
F214.00558659217876
sV\u5c31\u95ea\u9000
p29
F214.00558659217876
sV\u6295\u987e\u5c31
p30
F214.00558659217876
sV\u4e0d\u4e86\u6c14
p31
F214.00558659217876
sV\u79ef\u5206\u5151\u6362
p32
F222.06168224299066
sV\u4e0d\u80fd\u7ed1\u5b9a
p33
F142.95389408099689
sV\u6211\u4e0d\u80fd
p34
F73.744878957169462
sV\u67e5\u751f\u65e5\u793c\u7269
p35
F73.744878957169462
sV\u8d44\u6599\u548b\u529e
p36
F73.744878957169462
sV\u6536\u5230\u5361\u5bc6
p37
F147.76492537313433
sV\u901a\u8d26\u6237
p38
F214.00558659217876
sV\u6295\u6ce8\u8bb0\u5f55
p39
F214.00558659217876
sV\u7533\u8d2d\u51e0\u6b21
p40
F214.00558659217876
sV\u90fd\u613f\u610f
p41
F214.00558659217876
sV\u4e70\u8fc7
p42
F214.00558659217876
sV\u4e00\u6b21\u7533\u8d2d
p43
F214.00558659217876
sV\u7684\u4e0b\u8dcc
p44
F214.00558659217876
sV\u65e0\u6cd5\u8fdb\u5165
p45
F73.744878957169462
sV\u4e0d\u80fd\u767b\u9646
p46
F73.744878957169462
sV\u53ef\u4ee5\u544a\u77e5
p47
F73.744878957169462
sV\u4e0b\u8f7dapp
p48
F73.744878957169462
sV\u4e3a\u4ec0\u4e48\u63d0\u6b3e
p49
F73.744878957169462
sV\u4e2d\u4e88\u4ee5
p50
F214.00558659217876
sV\u5e10\u53f7\u767b\u5f55
p51
F222.06168224299066
sV\u6211\u67e5\u4e0b
p52
F147.76492537313433
sV\u9001400
p53
F73.744878957169462
sV\u8fc7\u751f\u65e5\u9001\u7ed9
p54
F73.744878957169462
sV\u670d\u52a1\u7684
p55
F214.00558659217876
sV\u7f16\u53f7\u5f04
p56
F73.744878957169462
sV\u5982\u4f55\u627e\u56de
p57
F371.49155722326452
sV\u53d6\u6d88\u7f51\u9875
p58
F214.00558659217876
sV\u6b7b\u6709\u65f6
p59
F214.00558659217876
sV\u8fdb\u5165\u90fd
p60
F214.00558659217876
sV\u4ea4\u6613\u6301\u4ed3
p61
F73.744878957169462
sV\u8bf4\u4eca\u5929
p62
F214.00558659217876
sV\u8001\u662f
p63
F502.30731707317074
sV\u4e0b\u8f7d\u90a3
p64
F214.00558659217876
sV\u80fd\u5b8c\u5584
p65
F73.744878957169462
sV\u6ca1\u6709\u5151\u73b0
p66
F214.00558659217876
sV\u7f3a\u9677\u8fd8\u8981
p67
F214.00558659217876
sV\u8fdb\u5165\u6073\u8bf7
p68
F73.744878957169462
sV\u8f6c\u4e0d\u8fdb\u53bb
p69
F214.00558659217876
sV\u4f20\u4e0a\u53bb\u554a
p70
F73.744878957169462
sV\u51c6\u5907\u9000\u51fa
p71
F214.00558659217876
sV\u5982\u4f55\u6d4b\u8bc4
p72
F73.744878957169462
sV\u4e0d\u4f1a\u9886\u53d6
p73
F73.744878957169462
sV\u5151\u6362\u70b9
p74
F73.744878957169462
sV\u52a0\u4e0d\u4e86
p75
F214.00558659217876
sV\u66f2\u7ebf\u8bf7
p76
F73.744878957169462
sV\u6dfb\u52a0\u9009\u9879
p77
F214.00558659217876
sV\u4e0d\u7528\u6211
p78
F73.744878957169462
sV\u81ea\u9009\u8fd9\u4e2a
p79
F214.00558659217876
sV\u53d6\u6d88\u5c06
p80
F73.744878957169462
sV\u8bc1\u5238\u8f6c
p81
F18.28358208955224
sV\u589e\u52a0\u677f\u5757
p82
F73.744878957169462
sV\u589e\u52a0\u53ef\u4ee5
p83
F73.744878957169462
sV\u6ca1\u663e\u793a
p84
F73.744878957169462
sV\u624b\u673a\u4e22
p85
F73.744878957169462
sV\u62cd\u7167\u5931\u8d25
p86
F214.00558659217876
sV\u4e0a\u4f20\u4e86
p87
F214.00558659217876
sV\u8ba1\u7b97\u80fd\u5426
p88
F73.744878957169462
sV00\u4e70\u4e0d\u5230
p89
F214.00558659217876
sV\u662f\u4e71\u7801
p90
F73.744878957169462
sV\u6c9f\u901a\u6e20\u9053
p91
F73.744878957169462
sV\u4e2d\u5956\u6307\u5f15
p92
F73.744878957169462
sV\u4e0d\u8bb0\u5f97
p93
F296.63670411985021
sV\u4e3a\u4ec0\u4e48\u7ecf\u5e38\u51fa\u73b0
p94
F214.00558659217876
sV\u5e0c\u671b\u5728
p95
F73.744878957169462
sV\u65e2\u4e0d\u4f1a
p96
F214.00558659217876
sV\u4e0d\u4e86\u7684
p97
F73.744878957169462
sV\u94f6\u884c\u5361\u8f6c\u4e0d
p98
F73.744878957169462
sV\u6709\u6ca1\u6709\u4e2d
p99
F73.744878957169462
sV\u5b98\u65b9\u80fd
p100
F73.744878957169462
sV\u4ef7\u683c\u663e\u793a
p101
F214.00558659217876
sV\u81ea\u9009\u5e0c\u671b
p102
F73.744878957169462
sV\u6ca1\u53d1\u9ebb\u70e6
p103
F73.744878957169462
sV\u60f3\u66f4\u6362
p104
F73.744878957169462
sV\u770b\u4e0b
p105
F214.00558659217876
sV\u8fdb\u6c34\u4e86
p106
F214.00558659217876
sV\u89c6\u9891\u4e0a\u4f20
p107
F214.00558659217876
sV\u662f\u5426\u8bc1\u5238\u516c\u53f8
p108
F214.00558659217876
sV\u6263\u6211
p109
F428.80970149253733
sV\u624b\u7eed\u8d39\u662f
p110
F147.76492537313433
sV\u6211\u60f3\u8981
p111
F73.744878957169462
sV\u5b58\u5728\u5167\u5e55
p112
F214.00558659217876
sV\u662f\u8d22\u7ecf
p113
F73.744878957169462
sV\u4e00\u70b9\u51fb
p114
F214.00558659217876
sV\u627e\u4e0d\u5230
p115
F213.69139209936174
sV\u6570\u91cf\u6709
p116
F73.744878957169462
sV\u56de\u7b54\u4e86
p117
F73.744878957169462
sV\u7b7e\u600e\u6837\u624d\u80fd
p118
F73.744878957169462
sV\u8981\u7533\u8bf7
p119
F214.00558659217876
sV\u77e5\u9053\u6211
p120
F18.28358208955224
sV\u4f1a\u5361
p121
F214.00558659217876
sV\u53ef\u4ee5\u6346\u7ed1
p122
F73.744878957169462
sV\u52b5\u8f6c
p123
F147.76492537313433
sV\u73b0\u91d1\u589e\u5229
p124
F147.76492537313433
sV\u589e\u65e5
p125
F73.744878957169462
sV\u7684\u4e0b\u6ce8
p126
F214.00558659217876
sV\u8fd8\u662f\u6709
p127
F73.744878957169462
sV\u9884\u7559\u624b\u673a\u53f7
p128
F73.744878957169462
sV\u8fd8\u6709\u8c01
p129
F73.744878957169462
sV\u6ca1\u7ed3\u7b97
p130
F214.00558659217876
sV\u624d\u6362
p131
F73.744878957169462
sV\u5fd8\u8bb0\u5566
p132
F73.744878957169462
sV\u5f00\u4f60\u4eec
p133
F214.00558659217876
sV\u4e70\u4e86
p134
F2.1688473520249221
sV\u6709\u8d44\u91d1
p135
F73.744878957169462
sV\u6211\u53c2\u4e0e
p136
F428.80970149253733
sV\u5e72\u6270\u64cd\u4f5c
p137
F214.00558659217876
sV\u70b9\u51fb\u8fdb\u6765
p138
F73.744878957169462
sV\u56fd\u503a\u9006
p139
F147.76492537313433
sV\u6ca1\u6709\u521b\u4e1a\u677f
p140
F73.744878957169462
sV\u4e0d\u80fd\u4e70\u5356
p141
F73.744878957169462
sV\u79ef\u5206\u770b
p142
F214.00558659217876
sV\u5e72\u561b\u5403
p143
F214.00558659217876
sV\u6ca1\u4e2d\u8fc7
p144
F214.00558659217876
sV\u4fdd\u5bc6\u9700
p145
F214.00558659217876
sV\u4e3a\u5565\u4e0d\u80fd
p146
F73.744878957169462
sV\u662f\u7cfb\u7edf
p147
F73.744878957169462
sVlm168\u6539
p148
F73.744878957169462
sV\u518d\u8865
p149
F73.744878957169462
sV\u70b9\u51fb\u5c31
p150
F214.00558659217876
sV\u67e5\u4e0d\u5230\u80a1\u7968
p151
F214.00558659217876
sV\u600e\u4e48\u767b\u5f55
p152
F73.744878957169462
sV\u770b\u7ed3\u679c
p153
F214.00558659217876
sV\u7b7e\u522b\u4eba
p154
F214.00558659217876
sV\u5199\u7684
p155
F18.28358208955224
sV\u662f\u786e\u8ba4
p156
F214.00558659217876
sV\u53bb\u54ea\u513f
p157
F73.744878957169462
sV\u4e86\u770b\u4e0d\u6e05
p158
F214.00558659217876
sV\u5206\u7ea2\u4e86
p159
F73.744878957169462
sV\u522b\u4eba\u770b\u5230
p160
F73.744878957169462
sV\u5730\u65b9\u9886\u53d6
p161
F73.744878957169462
sV\u6ca1\u6709\u8bbe\u7f6e
p162
F214.00558659217876
sV\u7684\u4e0b\u8f7d
p163
F73.744878957169462
sV\u662f\u4ec0\u4e48
p164
F27.372610796051251
sV\u600e\u4e48\u8865\u529e
p165
F73.744878957169462
sV\u767b\u5f55\u5931\u8d25
p166
F73.744878957169462
sV\u663e\u793a\u4e3a
p167
F147.76492537313433
sV\u7ef4\u62a4\u800c\u4e14
p168
F214.00558659217876
sV\u592a\u6162\u4e0a\u4f20
p169
F214.00558659217876
sV\u4e86\u662f
p170
F214.00558659217876
sV\u5e7f\u53d1\u6c9f\u901a
p171
F214.00558659217876
sV\u7684\u64cd\u4f5c
p172
F214.00558659217876
sV\u53ef\u8981\u6362\u6389
p173
F214.00558659217876
sV\u6362\u8fc7
p174
F73.744878957169462
sV\u8f6c\u5929
p175
F214.00558659217876
sV\u770b\u4e0d\u5230\u5728
p176
F214.00558659217876
sV\u4e0b\u8f7d\u5730\u5740
p177
F73.744878957169462
sV\u5b98\u7f51\u6ca1\u6709
p178
F214.00558659217876
sV\u5728\u9009\u62e9
p179
F73.744878957169462
sV\u5206\u7ea7\u57fa\u91d1
p180
F73.744878957169462
sV\u662f\u6211\u4eec
p181
F214.00558659217876
sV\u6392\u9664\u6709
p182
F214.00558659217876
sV\u4e70\u56fd\u503a
p183
F73.744878957169462
sV\u5e0c\u671b\u4f60\u4eec
p184
F73.744878957169462
sV\u6ca1\u6709\u641c\u7d22
p185
F214.00558659217876
sV\u53f7\u5fd8\u8bb0
p186
F147.76492537313433
sV\u53ef\u662f\u6263
p187
F214.00558659217876
sV\u4eca\u5929\u662f
p188
F73.744878957169462
sV\u4e86\u4f8b\u5982
p189
F73.744878957169462
sV\u4e3a\u4ec0\u4e48\u663e\u793a
p190
F147.76492537313433
sV\u6211\u5356\u6389
p191
F73.744878957169462
sV\u901a\u77e5\u6211\u4eec
p192
F73.744878957169462
sV\u7684\u5410\u8840
p193
F214.00558659217876
sV\u600e\u6837\u624d\u80fd\u77e5\u9053
p194
F73.744878957169462
sV\u5988\u903c
p195
F214.00558659217876
sV\u624b\u673a\u4e0d\u80fd
p196
F214.00558659217876
sV\u4e0d\u53ea\u80fd
p197
F214.00558659217876
sV\u6211\u53ef
p198
F73.744878957169462
sV\u91cc\u663e\u793a
p199
F73.744878957169462
sV\u63a2\u4f5c\u53e6
p200
F214.00558659217876
sV\u662f\u8dcc\u7684
p201
F214.00558659217876
sV\u6211\u767b\u5f55
p202
F73.744878957169462
sV\u6ca1\u5e26
p203
F73.744878957169462
sV\u8d44\u6599\u5fd8
p204
F73.744878957169462
sV\u627e\u56de\u80fd\u5426
p205
F73.744878957169462
sV\u4e8f\u4e86\u51e0\u4e07\u5143
p206
F214.00558659217876
sV\u4e0d\u80fd\u53cd\u6620
p207
F214.00558659217876
sV\u4e0d\u80fd\u663e\u793a
p208
F73.744878957169462
sV\u8ba4\u8d2d\u90fd
p209
F73.744878957169462
sV\u600e\u6837\u67e5
p210
F147.76492537313433
sV\u624d\u6709\u7a7a
p211
F73.744878957169462
sV500\u5206
p212
F214.00558659217876
sV\u5230\u8fd9\u91cc
p213
F73.744878957169462
sV\u540e\u53cd\u590d
p214
F73.744878957169462
sV\u540c\u65f6\u9009
p215
F73.744878957169462
sV\u9009\u4e24
p216
F73.744878957169462
sV\u662f\u65e0\u6cd5
p217
F214.00558659217876
sV\u8fc7\u4e70\u4e0d\u5230
p218
F214.00558659217876
sV\u8981\u6c42\u66f4\u6362
p219
F214.00558659217876
sV\u663e\u793a\u6ca1\u6709
p220
F73.744878957169462
sV\u7ec4\u5408\u66f4\u65b0
p221
F428.80970149253733
sV\u6c9f\u901a\u4ed6\u4eec
p222
F214.00558659217876
sV\u6362\u4e86
p223
F73.744878957169462
sV\u80fd\u964d\u4f4e
p224
F214.00558659217876
sV\u80fd\u4e70\u5230
p225
F214.00558659217876
sV\u4f1a\u8fd9\u6837
p226
F214.00558659217876
sV\u4f1a\u51fa
p227
F73.744878957169462
sV\u731c\u6da8\u8dcc
p228
F1326.4375131274942
sV\u66f4\u6362\u5ba2\u670d
p229
F214.00558659217876
sV\u9001500
p230
F214.00558659217876
sV\u53cd\u6620\u771f\u5b9e
p231
F18.28358208955224
sV\u4e0d\u4e86\u624b\u673a
p232
F73.744878957169462
sV\u505a\u9ec4\u91d1
p233
F73.744878957169462
sV\u63d0\u793a\u6211
p234
F73.744878957169462
sV\u770b\u5747\u7ebf
p235
F73.744878957169462
sV\u80fd\u8c03\u4f4e
p236
F73.744878957169462
sV\u6539\u5230\u4e86
p237
F214.00558659217876
sV\u5230\u8425\u4e1a\u5385
p238
F18.28358208955224
sV\u7533\u8bf7\u4e0d\u4e86
p239
F214.00558659217876
sV\u95ea\u9000\u4e0d\u5f97\u4e0d
p240
F214.00558659217876
sV\u65e0\u6cd5\u6253\u5f00
p241
F214.00558659217876
sV\u6295\u8d44\u63a2\u4f5c
p242
F214.00558659217876
sV\u8bf7\u89e3\u51b3
p243
F73.744878957169462
sV\u6a21\u5757\u9700\u8981
p244
F73.744878957169462
sV\u4e0b\u8dcc\u4e3a\u4ec0\u4e48
p245
F214.00558659217876
sV\u6765\u7684
p246
F73.744878957169462
sV\u7834\u8f6f\u4ef6
p247
F428.80970149253733
sV\u4e00\u4e07\u5143\u5230
p248
F73.744878957169462
sV\u9a8c\u8bc1\u6211
p249
F73.744878957169462
sV\u90fd\u67e5\u4e0b
p250
F214.00558659217876
sV\u5b9e\u9645\u6301\u4ed3
p251
F214.00558659217876
sV\u663e\u6446\u60f3
p252
F214.00558659217876
sV\u4eb2\u6211
p253
F73.744878957169462
sV\u8d39\u4e0d\u7136
p254
F214.00558659217876
sV\u6ca1\u6709\u6536\u5230
p255
F147.76492537313433
sV\u505a\u5ba2\u670d
p256
F214.00558659217876
sV\u6362\u4e2a
p257
F147.76492537313433
sV\u82e5\u80fd
p258
F73.744878957169462
sV\u4e3a\u5565\u5931\u8d25
p259
F214.00558659217876
sV\u6709\u5176\u4ed6
p260
F73.744878957169462
sV\u8981\u600e\u4e48\u529e
p261
F73.744878957169462
sV\u6dfb\u52a0\u81ea\u9009\u80a1
p262
F214.00558659217876
sV\u7528\u56de
p263
F73.744878957169462
sV\u4e8f\u66f4\u662f
p264
F214.00558659217876
sV\u770b\u5230\u5386\u53f2
p265
F73.744878957169462
sV\u4e0d\u4e86\u80a1\u7968
p266
F214.00558659217876
sV\u767b\u9646\u500d
p267
F73.744878957169462
sV\u624b\u673a\u6ca1
p268
F73.744878957169462
sV\u901a\u624b\u673a\u53f7\u7801
p269
F214.00558659217876
sV\u4e3a\u4f55\u6ca1\u6709
p270
F214.00558659217876
sV\u5e10\u6237\u663e\u793a
p271
F214.00558659217876
sV\u53f7\u53d8\u66f4
p272
F73.744878957169462
sV\u80fd\u5426\u53d1\u8fc7\u6765
p273
F73.744878957169462
sV\u51e0\u628a\u7834
p274
F214.00558659217876
sV\u88ab\u9a97
p275
F73.744878957169462
sV\u600e\u4e48\u63d0\u73b0
p276
F73.744878957169462
sV\u6709\u67e5\u8be2
p277
F73.744878957169462
sV\u77e5\u9053\u600e\u4e48
p278
F18.28358208955224
sV\u8eab\u4efd\u8bc1\u80fd
p279
F73.744878957169462
sV\u63d0\u4e00\u4e2a
p280
F73.744878957169462
sV\u8bb0\u5f97\u8d26\u53f7
p281
F73.744878957169462
sV\u76c8\u4e8f\u7edf\u8ba1
p282
F214.00558659217876
sV\u4ec0\u4e48\u8bf7
p283
F73.744878957169462
sV\u53ef\u4ee5\u770b\u5230
p284
F73.744878957169462
sV\u5df2\u7ecf\u56de\u7b54
p285
F73.744878957169462
sV\u6ca1\u6709\u518d
p286
F214.00558659217876
sV\u94b1\u8f6c\u4e0d
p287
F214.00558659217876
sV\u79ef\u5206\u731c
p288
F214.00558659217876
sV\u600e\u6837\u624d\u80fd\u67e5
p289
F73.744878957169462
sV\u5f00\u901a\u5206\u7ea7
p290
F73.744878957169462
sV\u66f4\u6362\u65b0
p291
F73.744878957169462
sV\u4f1a\u505c\u6b62
p292
F73.744878957169462
sV\u4e86\u67e5\u770b
p293
F73.744878957169462
sV\u8fde\u627e\u6295\u987e
p294
F214.00558659217876
sV\u4e0d\u7ef4\u4fee
p295
F214.00558659217876
sV\u63d0\u793a\u62cd\u7167
p296
F214.00558659217876
sV\u81f3\u4eca\u6ca1\u53d1
p297
F73.744878957169462
sV\u5220\u9664\u952e
p298
F214.00558659217876
sV\u6c42\u4e0d\u8981
p299
F214.00558659217876
sV\u4e86\u5f71\u54cd
p300
F214.00558659217876
sV\u5f55\u50cf\u603b\u662f
p301
F214.00558659217876
sV\u6570\u636e\u52a0\u5165
p302
F73.744878957169462
sV\u8425\u4e1a\u5385\u53bb
p303
F214.00558659217876
sV\u5356\u51fa\u4e5f
p304
F214.00558659217876
sV\u4e0b\u8f7d\u5462
p305
F147.76492537313433
sV\u6362\u6210\u4f4e\u4ef7
p306
F73.744878957169462
sV\u6ca1\u6295\u987e
p307
F214.00558659217876
sV\u603b\u662f\u5931\u8d25
p308
F73.744878957169462
sV\u4e0d\u4f1a\u4e70
p309
F214.00558659217876
sV\u53ef\u4ee5\u53d6\u6d88
p310
F73.744878957169462
sV\u9001\u7ed9\u7684
p311
F73.744878957169462
sV\u51fa\u6765\u663e\u793a
p312
F73.744878957169462
sV\u63d0\u4f9b\u67e5\u627e
p313
F73.744878957169462
sV\u52a0\u5165\u8ba1\u7b97
p314
F73.744878957169462
sV\u4ecd\u7136\u662f
p315
F73.744878957169462
sV\u7f16\u53f7\u5fd8\u8bb0
p316
F371.49155722326452
sV\u66f4\u65b0\u662f
p317
F214.00558659217876
sV\u8f6f\u4ef6\u589e\u52a0
p318
F73.744878957169462
sV\u5e74\u5230
p319
F214.00558659217876
sV\u7533\u8d2d\u529f\u80fd
p320
F214.00558659217876
sV\u8d8a\u6765\u8d8a\u9000\u6b65
p321
F214.00558659217876
sV\u7684\u56de\u590d
p322
F73.744878957169462
sV\u8001\u5ba2\u6237\u8981
p323
F73.744878957169462
sV\u7ec4\u5408\u4e0d\u80fd
p324
F214.00558659217876
sV\u5ba1\u6838\u4e2d
p325
F73.744878957169462
sV\u4e70\u4e0d\u4e86
p326
F147.76492537313433
sV\u89c9\u5f97\u5e7f\u53d1
p327
F214.00558659217876
sV\u9519\u4e86
p328
F73.744878957169462
sV\u770b\u4e0d\u5230\u91cf
p329
F214.00558659217876
sV\u4e3a\u4ec0\u4e48\u4e0d\u80fd
p330
F222.06168224299066
sV\u9875\u9762\u662f
p331
F73.744878957169462
sV\u6210\u529f\u8f6c
p332
F214.00558659217876
sV\u65e0\u6cd5\u8c03\u6574
p333
F214.00558659217876
sV\u5361\u5f97\u8981\u6b7b
p334
F214.00558659217876
sV\u589e\u52a0expma
p335
F73.744878957169462
sV\u89e3\u51b3\u624b\u673a
p336
F214.00558659217876
sV\u65e7\u7248\u597d\u7528
p337
F214.00558659217876
sV\u600e\u4e48\u6dfb\u52a0
p338
F2.1688473520249221
sV\u64cd\u4f5c\u4e86
p339
F73.744878957169462
sV\u6539\u56de
p340
F73.744878957169462
sV\u600e\u4e48\u4e0d\u80fd
p341
F73.744878957169462
sV\u7cfb\u7edf\u8c03\u8bd5
p342
F73.744878957169462
sV\u8ba1\u5165\u80a1\u7968
p343
F73.744878957169462
sV\u4e0d\u4e86\u80a1\u5e02
p344
F73.744878957169462
sV\u4fee\u6539\u8eab\u4efd\u8bc1
p345
F214.00558659217876
sV\u878d\u8d44\u878d\u5238
p346
F214.00558659217876
sV\u600e\u4e48\u8bf4
p347
F428.80970149253733
sV\u5c45\u7136\u6302\u65ad
p348
F214.00558659217876
sV\u80fd\u4f18\u5316
p349
F73.744878957169462
sV\u8dcc\u4e86
p350
F214.00558659217876
sV\u4e0a\u548b\u529e
p351
F73.744878957169462
sV\u600e\u4e48\u4fee\u6539
p352
F73.744878957169462
sV\u53ef\u4ee5\u53c2\u8003
p353
F214.00558659217876
sV\u4ee5\u524d\u6709
p354
F73.744878957169462
sV\u4e86\u80fd
p355
F73.744878957169462
sV\u624b\u673a\u8fdb\u6c34
p356
F73.744878957169462
sV\u73b0\u5728\u67e5\u770b
p357
F73.744878957169462
sV\u6295\u6ce8\u7684
p358
F428.80970149253733
sV\u56de\u6211
p359
F214.00558659217876
sV\u4e3a\u5565\u6ca1\u6709
p360
F18.28358208955224
sV\u5199\u82f9\u679c\u7535\u8111
p361
F214.00558659217876
sV\u60f3\u4fdd\u7559
p362
F73.744878957169462
sV\u51bb\u7ed3\u8bf7\u95ee
p363
F73.744878957169462
sV\u627e\u56de\u7f16\u53f7
p364
F147.76492537313433
sV\u767b\u9646\u7684
p365
F73.744878957169462
sV\u67e5\u4e0d\u4e86
p366
F222.06168224299066
sV\u89e3\u51b3\u4e00\u4e0b
p367
F73.744878957169462
sV\u524d\u6bb5\u65f6\u95f4\u597d\u50cf
p368
F73.744878957169462
sV\u8fd8\u6ca1
p369
F214.00558659217876
sV\u5f80\u5f80\u662f
p370
F73.744878957169462
sV\u9500\u6237\u53bb
p371
F214.00558659217876
sV\u8c03\u8282\u5417
p372
F73.744878957169462
sV\u6210\u4ea4\u4ef7\u662f
p373
F73.744878957169462
sV\u540e\u770b\u4e0d\u5230
p374
F73.744878957169462
sV\u662f\u4e8f
p375
F214.00558659217876
sV\u51fa\u8bb0\u5f55
p376
F73.744878957169462
sV\u5417\u9700\u8981
p377
F73.744878957169462
sV\u66f4\u65b0\u6709
p378
F214.00558659217876
sV\u73b0\u5728\u6ca1\u6709
p379
F73.744878957169462
sV\u901a\u77e5\u5ba2\u6237
p380
F214.00558659217876
sV\u6709\u7684
p381
F142.95389408099689
sV\u4eba\u89c9\u5f97
p382
F214.00558659217876
sV\u83ab\u65af\u5229\u5b89
p383
F73.744878957169462
sV\u521a\u521a\u5f00\u901a
p384
F73.744878957169462
sV\u94f6\u884c\u67e5\u8be2
p385
F73.744878957169462
sV\u6211\u6362
p386
F147.76492537313433
sV\u534a\u5929\u4e0d\u7406
p387
F214.00558659217876
sV\u518d\u8fdb\u884c
p388
F214.00558659217876
sV\u8d5a\u94b1\u8001
p389
F214.00558659217876
sV\u56de\u590d\u7684\u4e48
p390
F214.00558659217876
sV\u65e0\u6cd5\u767b\u9646
p391
F73.744878957169462
sV\u77e5\u9053\u662f
p392
F214.00558659217876
sV\u6210\u4ea4\u4ef7\u683c
p393
F73.744878957169462
sV\u4e0d\u80fd\u66f4\u65b0
p394
F214.00558659217876
sV\u7b49\u5230\u5565
p395
F214.00558659217876
sV\u5546\u57ce\u5151\u6362
p396
F73.744878957169462
sV\u4e00\u4e0b\u5410
p397
F73.744878957169462
sV\u662f\u5426\u4e2d\u5956
p398
F73.744878957169462
sV\u603b\u662f\u8ba9
p399
F214.00558659217876
sV\u6ca1\u6709\u63d0\u793a
p400
F73.744878957169462
sV\u8ba9\u5ba2\u6237
p401
F214.00558659217876
sV\u65e0\u4e00\u6b21
p402
F214.00558659217876
sV\u80fd\u4e70
p403
F73.744878957169462
sV\u767b\u5f55\u4e0d\u4e86
p404
F296.63670411985021
sV\u662f\u4e07
p405
F428.80970149253733
sV\u4ee5\u524d\u662f
p406
F73.744878957169462
sV\u65e0\u6cd5\u5408\u5e76
p407
F428.80970149253733
sV\u62a5\u8b66\u544a
p408
F214.00558659217876
sV\u5ba2\u670d\u70e6
p409
F214.00558659217876
sV\u90fd\u6263
p410
F214.00558659217876
sV\u540e\u6ca1\u6709
p411
F73.744878957169462
sV\u624b\u673a\u767b\u5f55
p412
F73.744878957169462
sV\u770b\u4e0d\u5230\u7d2f\u79ef
p413
F73.744878957169462
sV\u6253\u65b0\u4e2d
p414
F73.744878957169462
sV\u4e3a\u4f55\u53d6\u6d88
p415
F214.00558659217876
sV\u6301\u80a1\u4fe1\u606f
p416
F214.00558659217876
sV\u67e5\u5bfb\u522b\u7684
p417
F73.744878957169462
sV\u505a\u7684
p418
F18.28358208955224
sV\u8bf7\u5e2e
p419
F147.76492537313433
sV\u4e0d\u8fdb\u53bb
p420
F214.00558659217876
sV\u63d0\u9192\u4e1a\u52a1
p421
F214.00558659217876
sV\u5341\u51e0\u5206\u949f\u6ca1
p422
F214.00558659217876
sV\u603b\u662f\u4f1a
p423
F73.744878957169462
sV\u63d0\u793a\u5bb3\u6015
p424
F73.744878957169462
sV\u65f6\u63a5\u6536
p425
F214.00558659217876
sV\u7684\u56de\u7b54
p426
F214.00558659217876
sV\u4e0d\u5230\u7ed1\u5b9a
p427
F214.00558659217876
sV\u63a8\u7ed9
p428
F214.00558659217876
sV\u66f4\u6362\u5bf9\u63a5
p429
F73.744878957169462
sV\u5356\u5b8c\u4e86
p430
F214.00558659217876
sV\u6211\u6536\u4e0d\u5230
p431
F73.744878957169462
sV\u8bf7\u95ee\u5b57\u5e55
p432
F73.744878957169462
sV\u6536\u76ca\u6d41\u901a
p433
F73.744878957169462
sV\u5e76\u5904\u7406
p434
F73.744878957169462
sV\u7136\u540e\u5356\u4e0d\u6389
p435
F214.00558659217876
sV\u5e0c\u671b\u5f90\u5faa\u6d01
p436
F214.00558659217876
sV\u4e4b\u524d\u5f00
p437
F73.744878957169462
sV\u56de\u5230\u5f00\u6237
p438
F73.744878957169462
sV\u66f4\u6539\u94f6\u8bc1
p439
F73.744878957169462
sV\u79ef\u5206\u4e0b\u6ce8
p440
F214.00558659217876
sV\u6709\u6ca1\u6709\u529e\u6cd5
p441
F73.744878957169462
sV\u6302\u65ad\u6211
p442
F214.00558659217876
sV\u8d5a\u8fd8
p443
F214.00558659217876
sV\u767b\u5f55\u95ea\u9000
p444
F214.00558659217876
sV\u5bc6\u7801\u5fd8\u8bb0
p445
F296.63670411985021
sV\u66f4\u6539\u9884\u7559
p446
F73.744878957169462
sV\u67e5\u5230
p447
F147.76492537313433
sV\u4e0d\u53bb
p448
F73.744878957169462
sV\u8fd8\u6539\u5230
p449
F214.00558659217876
sV\u8bf4\u70b9
p450
F428.80970149253733
sV\u51fa\u5ba2\u670d
p451
F214.00558659217876
sV\u91cc\u9001
p452
F214.00558659217876
sV\u4e86\u627e
p453
F73.744878957169462
sV\u8f6f\u4ef6\u67e5\u770b
p454
F214.00558659217876
sV\u63d0\u793a\u672a
p455
F73.744878957169462
sV\u56de\u7b54\u6211
p456
F142.95389408099689
sV\u80fd\u5426\u628a
p457
F73.744878957169462
sV\u7b7e\u5230\u8868\u91cc
p458
F73.744878957169462
sV\u8bbe\u7f6e\u72ec\u7acb
p459
F73.744878957169462
sV\u6210\u672c\u4ef7\u662f
p460
F73.744878957169462
sV\u60f3\u4e70
p461
F147.76492537313433
sV\u4ea4\u6613\u5230
p462
F214.00558659217876
sV\u4e5f\u53c2\u4e0e
p463
F214.00558659217876
sV\u5982\u4f55\u589e\u52a0
p464
F73.744878957169462
sV\u6301\u4ed3\u91cc\u9762
p465
F73.744878957169462
sV\u662f\u8d5a
p466
F214.00558659217876
sV\u8bb0\u5f97\u5ba2\u6237
p467
F73.744878957169462
sV\u53f7\u7801\u5f00
p468
F73.744878957169462
sV15226504559\u901a\u77e5
p469
F73.744878957169462
sV\u7684\u4e70\u5356
p470
F214.00558659217876
sV\u66f4\u6362\u671b
p471
F214.00558659217876
sV\u60f3\u77e5\u9053
p472
F222.06168224299066
sV\u8fd9\u7834
p473
F214.00558659217876
sV\u8d1f\u8d23\u6211
p474
F73.744878957169462
sV\u6da8\u8dcc\u731c\u4e2d
p475
F214.00558659217876
sV\u80a1\u7968\u6709\u6ca1\u6709
p476
F73.744878957169462
sV\u901a\u8d26\u53f7
p477
F73.744878957169462
sV\u7533\u8bf7\u6ce8\u518c
p478
F214.00558659217876
sV\u522b\u4eba\u7533\u8d2d
p479
F214.00558659217876
sV\u7684\u6210\u4ea4
p480
F73.744878957169462
sV\u540e\u641e
p481
F214.00558659217876
sV\u6ca1\u56de\u590d
p482
F428.80970149253733
sV\u4e0b\u6ce8\u600e\u4e48\u56de\u4e8b
p483
F214.00558659217876
sV\u767b\u9646\u4f1a
p484
F73.744878957169462
sV\u5bfc\u5165\u90a3\u6837
p485
F73.744878957169462
sV\u9009\u51fa\u6765
p486
F73.744878957169462
sV\u5e94\u8be5\u5982\u4f55
p487
F73.744878957169462
sV\u53ef\u4ee5\u4e70
p488
F73.744878957169462
sV\u4f46\u662f\u6ca1\u6709
p489
F73.744878957169462
sV\u98ce\u9669\u8bc4\u4f30
p490
F73.744878957169462
sV\u786e\u5b9a\u8981\u6c42
p491
F73.744878957169462
sV\u6ca1\u591a\u5c11
p492
F214.00558659217876
sV\u8bf7\u95ee\u4ea4\u6613
p493
F73.744878957169462
sV\u670d\u52a1\u4ea7\u54c1
p494
F214.00558659217876
sV\u9189\u4e86
p495
F428.80970149253733
sV\u4e0d\u5956\u52b1
p496
F214.00558659217876
sV\u8111\u5b50\u8fdb\u6c34
p497
F214.00558659217876
sV\u8d39\u7387\u662f
p498
F73.744878957169462
sV\u8f6f\u4ef6\u5b89\u88c5
p499
F73.744878957169462
sV\u51fa\u6765\u63d0\u793a
p500
F73.744878957169462
sV\u8b66\u793a\u98ce\u9669
p501
F214.00558659217876
sV\u4e0d\u5f00\u4e86
p502
F214.00558659217876
sV.\u51fa
p503
F214.00558659217876
sV\u6709\u975e\u5e38
p504
F214.00558659217876
sV\u4e70\u4ec0\u4e48
p505
F18.28358208955224
sV\u4e86\u8bf7\u95ee
p506
F147.76492537313433
sV\u663e\u793a\u6bcf\u4e2a
p507
F73.744878957169462
sV\u67e5\u4e00\u4e0b
p508
F147.76492537313433
sV\u8ba9\u522b\u4eba
p509
F73.744878957169462
sV\u6ca1\u6362\u5bc6\u7801
p510
F214.00558659217876
sV\u7533\u8bf7\u65b0\u80a1
p511
F428.80970149253733
sV\u4e22\u5566
p512
F73.744878957169462
sV\u7f29\u653e\u7bad\u5934
p513
F214.00558659217876
sV\u6dfb\u5229
p514
F214.00558659217876
sV\u6709\u52a8\u6001
p515
F214.00558659217876
sV\u7ecf\u5e38\u51fa\u73b0\u7f51\u7edc
p516
F214.00558659217876
sV\u600e\u4e48\u5220\u6389
p517
F73.744878957169462
sV\u6211\u5fd8
p518
F73.744878957169462
sV\u4fdd\u5b58\u81ea\u9009\u80a1
p519
F73.744878957169462
sV\u4e3a\u5565\u6ca1\u6536
p520
F73.744878957169462
sV\u8bf4\u7f51\u7edc
p521
F214.00558659217876
sV\u53d8\u5316\u8c03\u6574
p522
F214.00558659217876
sV\u8ba1\u7b97\u8fd9\u6837
p523
F73.744878957169462
sV\u6765\u4e0d
p524
F214.00558659217876
sV\u4e0d\u786e\u5b9a
p525
F73.744878957169462
sV\u4e0a\u5f00\u901a
p526
F73.744878957169462
sV\u4e86\u7b97\u4e86
p527
F214.00558659217876
sV\u4f60\u597d\u8bc4\u4f30
p528
F73.744878957169462
sV\u63d0\u793a\u6613
p529
F214.00558659217876
sV\u4ec0\u4e48\u624b\u7eed
p530
F73.744878957169462
sV\u5230\u672c\u6765
p531
F73.744878957169462
sV\u7684\u53d1\u8a00
p532
F73.744878957169462
sV\u4e70\u5165\u7684
p533
F73.744878957169462
sV\u6ca1\u67e5\u770b
p534
F214.00558659217876
sV\u7cfb\u7edf\u663e\u793a
p535
F428.80970149253733
sV\u5f00\u8d44\u4ea7
p536
F73.744878957169462
sV\u5fc3\u60c5\u5173\u6ce8
p537
F214.00558659217876
sV\u4ea4\u6613\u53d1
p538
F214.00558659217876
sV\u4e86\u6362
p539
F73.744878957169462
sV\u77e5\u9053\u5982\u4f55
p540
F18.28358208955224
sV\u4e0d\u89c1\u4e86
p541
F142.95389408099689
sV\u4e0d\u80fd\u4f7f\u7528
p542
F214.00558659217876
sV\u8bc1\u5238\u53d1\u6765
p543
F73.744878957169462
sV\u5982\u4f55\u67e5
p544
F73.744878957169462
sV\u663e\u793a\u4f5c\u5e9f
p545
F214.00558659217876
sV\u5929\u9a6c\u5356
p546
F73.744878957169462
sV\u7406\u8d22\u4e86
p547
F73.744878957169462
sV\u4e0d\u60f3\u8ba9
p548
F73.744878957169462
sV\u4ec0\u4e48\u7ec4\u5408
p549
F214.00558659217876
sV\u8981\u91cd\u65b0
p550
F73.744878957169462
sV\u8c03\u5927\u4e00\u70b9
p551
F73.744878957169462
sV\u7ed9\u79bb\u804c
p552
F214.00558659217876
sV\u4e5f\u8fdb\u4e0d\u53bb
p553
F73.744878957169462
sV\u8fdb\u884c\u8bbe\u5b9a
p554
F214.00558659217876
sV\u65f6\u9009\u9519
p555
F73.744878957169462
sV\u5931\u8d25\u4ec0\u4e48
p556
F214.00558659217876
sV\u9886\u53d6\u79ef\u5206
p557
F73.744878957169462
sV\u94f6\u8bc1\u8f6c\u8d26
p558
F222.06168224299066
sV\u624b\u7eed\u8d39\u80fd
p559
F73.744878957169462
sV\u4e24\u6b21\u663e\u793a
p560
F214.00558659217876
sV\u7684\u81ea\u9009
p561
F73.744878957169462
sV\u9694\u65e5\u767b\u5f55
p562
F214.00558659217876
sV\u5bf9\u6362\u6d41\u91cf
p563
F73.744878957169462
sV\u8981\u6295\u8bc9
p564
F214.00558659217876
sV\u6253\u4e0d\u5f00\u65e0\u6cd5
p565
F73.744878957169462
sV\u5151\u73b0\u8d54\u4ed8
p566
F214.00558659217876
sV\u8f6c\u5165\u8f6c
p567
F73.744878957169462
sV\u8bb0\u5f97\u4e86
p568
F73.744878957169462
sV\u53ef\u4ee5\u8f6c
p569
F73.744878957169462
sV\u5c55\u793a\u6211
p570
F73.744878957169462
sV\u624b\u673a\u53f7\u4e0d\u7528
p571
F73.744878957169462
sV\u600e\u4e48\u8d4e\u56de
p572
F73.744878957169462
sV\u8fd8\u8981\u53bb
p573
F214.00558659217876
sV\u53d1\u6765\u77ed\u4fe1
p574
F73.744878957169462
sV\u90fd\u770b\u4e0d\u6e05
p575
F214.00558659217876
sV\u725b\u8bf4
p576
F73.744878957169462
sV\u964d\u4f4e\u4f63\u91d1
p577
F214.00558659217876
sV\u8bbe\u5b9a\u7ecf\u5e38
p578
F214.00558659217876
sV\u600e\u4e48\u8981\u6c42
p579
F73.744878957169462
sV\u67e5\u65b0\u80a1
p580
F73.744878957169462
sV\u770b\u4e0d\u6e05\u79fb
p581
F214.00558659217876
sV\u600e\u4e48\u4e70
p582
F147.76492537313433
sV\u64cd\u4f5c\u5230
p583
F214.00558659217876
sV\u94b1\u8f6c\u4e0d\u8fdb
p584
F214.00558659217876
sV\u5e26\u600e\u4e48\u529e
p585
F73.744878957169462
sV\u751f\u65e5\u9001\u6765
p586
F214.00558659217876
sV\u6da8\u8dcc\u7684
p587
F214.00558659217876
sV\u76c8\u4e8f\u5206\u6790
p588
F214.00558659217876
sV\u663e\u793a\u51bb\u7ed3
p589
F73.744878957169462
sV\u6da8\u8dcc\u4e3a\u4f55
p590
F214.00558659217876
sV\u8fdb\u6765\u4e3a
p591
F73.744878957169462
sV\u53d1\u751f\u7b49\u5f85
p592
F214.00558659217876
sV\u51fa\u5e72\u6270
p593
F214.00558659217876
sV\u6295\u8d44\u6570\u636e
p594
F73.744878957169462
sV\u7279\u522b\u662f
p595
F214.00558659217876
sV\u5bfc\u51fa\u4e86
p596
F73.744878957169462
sV\u5f00\u901a\u6743\u9650
p597
F147.76492537313433
sV\u592a\u5931\u671b
p598
F214.00558659217876
sV\u4e00\u5065\u7533\u8d2d
p599
F214.00558659217876
sV\u5e02\u503c\u914d\u552e
p600
F147.76492537313433
sV\u72ec\u7acb\u5bc6\u7801
p601
F73.744878957169462
sV\u7ec4\u5408\u7684
p602
F73.744878957169462
sV\u5e10\u6237\u662f\u5426
p603
F73.744878957169462
sV\u70b9\u9886\u53d6
p604
F73.744878957169462
sV\u5e38\u63a5\u5230
p605
F214.00558659217876
sV\u53ef\u4ee5\u67e5\u770b
p606
F147.76492537313433
sV\u95ee\u6211
p607
F18.28358208955224
sV\u90fd\u53ef
p608
F214.00558659217876
sV\u641e\u7684
p609
F428.80970149253733
sV\u7ecf\u5e38\u6253\u4e0d\u5f00
p610
F214.00558659217876
sV\u8bc4\u4f30\u5728
p611
F73.744878957169462
sV\u5947\u602a\u771f
p612
F214.00558659217876
sV\u6d41\u901a\u5e02\u503c
p613
F73.744878957169462
sV\u8fd9\u662f
p614
F905.89857411891307
sV\u5206\u65f6\u56fe\u663e\u793a
p615
F73.744878957169462
sV\u4e86\u8981\u600e\u4e48
p616
F73.744878957169462
sV\u4e86\u9884\u4f30
p617
F214.00558659217876
sV\u6709\u6ca1\u6709\u6362
p618
F214.00558659217876
sV\u6709\u4e00\u4e2a
p619
F214.00558659217876
sV\u8d44\u6599\u7f3a\u5931
p620
F214.00558659217876
sV\u8bf7\u95ee\u600e\u6837
p621
F147.76492537313433
sV\u4e2d\u9009\u62e9
p622
F214.00558659217876
sV\u5417\u5f00
p623
F214.00558659217876
sV\u7ed1\u5b9a\u4ea4\u6613
p624
F214.00558659217876
sV\u770b\u6765\u8981
p625
F214.00558659217876
sV\u5e94\u662f
p626
F214.00558659217876
sV\u9700\u8981\u4f60
p627
F73.744878957169462
sV\u66f4\u6539\u7ed1\u5b9a
p628
F147.76492537313433
sV\u4eba\u6709
p629
F214.00558659217876
sV\u81ea\u52a8\u5212\u505a
p630
F73.744878957169462
sV\u4e86\u6ca1
p631
F73.744878957169462
sV\u89c6\u5c4f\u4e0a\u4f20
p632
F214.00558659217876
sV\u5efa\u8bae\u4fee\u6539
p633
F214.00558659217876
sV\u80fd\u6309
p634
F214.00558659217876
sV\u5f00\u59cb\u8d35\u53f8
p635
F214.00558659217876
sV\u8c03\u4f4e\u5417
p636
F73.744878957169462
sV\u63d0\u793a\u8f6c\u53d1
p637
F73.744878957169462
sV\u8bf7\u95ee\u7f51\u9875
p638
F73.744878957169462
sV\u6ca1\u6709\u8fd9\u9879
p639
F214.00558659217876
sV\u8d44\u91d1\u8f6c\u4e0d\u51fa
p640
F214.00558659217876
sV\u7684\u5e2e\u52a9
p641
F73.744878957169462
sV\u65b9\u4fbf\u5230
p642
F73.744878957169462
sV\u8bc4\u6d4b\u540e
p643
F73.744878957169462
sV\u56de\u8d2d\u5982\u4f55
p644
F73.744878957169462
sV\u80a1\u7968\u5356\u51fa
p645
F73.744878957169462
sV\u8f93\u5165\u59d3\u540d
p646
F73.744878957169462
sV\u6ca1\u6709\u53d8\u52a8
p647
F214.00558659217876
sV\u4e70\u72d7\u8089
p648
F214.00558659217876
sV\u591a\u6b21\u53cd\u6620
p649
F214.00558659217876
sV\u662f\u540e\u7eed
p650
F214.00558659217876
sV\u6ca1\u53cd\u6620
p651
F214.00558659217876
sV\u597d\u50cf\u5206\u7ea2
p652
F73.744878957169462
sV\u8bf7\u5ffd\u7565
p653
F296.63670411985021
sV\u8eab\u4efd\u8bc1\u8bf4
p654
F73.744878957169462
sV\u4e0b\u8f7d\u7684
p655
F2.1688473520249221
sV\u663e\u793a\u54ea\u91cc
p656
F73.744878957169462
sV\u4f63\u91d1\u662f\u5426
p657
F214.00558659217876
sV\u67e5\u627e\u81ea\u5df1
p658
F73.744878957169462
sV\u6301\u4ed3\u91cc
p659
F73.744878957169462
sV\u53d6\u6d88\u5417
p660
F73.744878957169462
sV\u56de\u590d\u6709
p661
F214.00558659217876
sV\u5e0c\u671b\u53ca\u65f6
p662
F73.744878957169462
sV\u5982\u4f55\u66f4\u6539
p663
F73.744878957169462
sV\u5e72\u8106\u505c
p664
F214.00558659217876
sV\u4e0d\u8ba1\u5165
p665
F73.744878957169462
sV\u8bf4\u9001
p666
F73.744878957169462
sV\u6ca1\u6709\u7f51\u9875
p667
F73.744878957169462
sV\u7cfb\u7edf\u6709
p668
F428.80970149253733
sV\u660e\u660e\u770b\u5230
p669
F73.744878957169462
sV\u8fdb\u53bb\u770b\u4e0d\u5230
p670
F214.00558659217876
sV\u662f\u628a
p671
F214.00558659217876
sV\u901a\u7684
p672
F73.744878957169462
sV\u5f00\u5e02\u534a\u4e2a
p673
F214.00558659217876
sV\u8bf7\u67e5\u660e
p674
F73.744878957169462
sV\u5e0c\u671b\u5b98\u65b9
p675
F73.744878957169462
sV\u7bad\u5934\u6321\u4f4f
p676
F214.00558659217876
sV\u6253\u76d8\u7684
p677
F214.00558659217876
sV\u8c03\u6574\u8fd8\u662f
p678
F214.00558659217876
sV\u901a\u77e5\u53ef\u4ee5
p679
F73.744878957169462
sV\u4e0d\u80fd\u5bfc\u51fa
p680
F73.744878957169462
sV\u8fd8\u80fd
p681
F73.744878957169462
sV\u8981\u52a0\u5386\u53f2
p682
F73.744878957169462
sV\u63d0\u4e0d
p683
F73.744878957169462
sV\u914d\u53f7\u67e5\u5bfb
p684
F73.744878957169462
sV\u6709\u65f6\u4e70\u5165
p685
F214.00558659217876
sV\u53ea\u80fd\u518d
p686
F214.00558659217876
sV\u6253\u65b0\u6253
p687
F214.00558659217876
sV\u589e\u52a0\u516c\u5f0f
p688
F73.744878957169462
sV\u7684\u731c
p689
F214.00558659217876
sV\u63d0\u4f9b\u6211
p690
F73.744878957169462
sV\u7b7e\u5230\u554a
p691
F73.744878957169462
sV\u6570\u636e\u4e0d\u80fd
p692
F73.744878957169462
sV\u8981\u53e6
p693
F73.744878957169462
sV\u5e10\u6237\u627e
p694
F214.00558659217876
sV\u80a1\u7968\u64cd\u4f5c
p695
F214.00558659217876
sV\u4e00\u6b21\u6ca1\u4e2d
p696
F214.00558659217876
sV\u7ec4\u5408\u777f
p697
F73.744878957169462
sV\u663e\u793a\u65b0
p698
F73.744878957169462
sV\u66f4\u6362\u8425\u4e1a\u90e8
p699
F73.744878957169462
sV\u8f93\u9519\u53f7\u7801
p700
F73.744878957169462
sV0302\u6765\u81ea
p701
F73.744878957169462
sV\u4e0d\u80fd\u627e\u56de
p702
F73.744878957169462
sV\u80fd\u627e
p703
F73.744878957169462
sV\u90fd\u63d0\u793a
p704
F214.00558659217876
sV\u5c3d\u5feb\u89e3\u51b3
p705
F36.704119850187269
sV\u6211\u53ef\u8981
p706
F214.00558659217876
sV\u7684\u5356
p707
F214.00558659217876
sV\u60f3\u8981\u7684
p708
F73.744878957169462
sV\u662f\u6211
p709
F73.744878957169462
sV\u5212\u505a\u7406\u8d22
p710
F73.744878957169462
sV\u6ca1\u6709\u4e2d
p711
F73.744878957169462
sV\u66f4\u65b0\u4e0d\u80fd
p712
F214.00558659217876
sV\u786e\u662f
p713
F214.00558659217876
sV\u8fdb\u53bb\u4f59\u989d
p714
F214.00558659217876
sV\u7b7e\u6709
p715
F73.744878957169462
sV\u5ba2\u6237\u7533\u8bf7
p716
F214.00558659217876
sV\u65e0\u6cd5\u767b\u5f55
p717
F142.95389408099689
sV\u5f04\u4e22
p718
F73.744878957169462
sV\u5927\u731c
p719
F214.00558659217876
sV\u8d2d\u65b0\u80a1
p720
F73.744878957169462
sV\u4e3a\u4ec0\u4e48\u770b\u4e0d\u5230
p721
F214.00558659217876
sV\u4f46\u662f\u6295\u6ce8
p722
F214.00558659217876
sV\u5408\u5e76\u5ba2\u6237
p723
F214.00558659217876
sV\u5207\u6362k
p724
F73.744878957169462
sV\u5fd8\u8bb0\u5ba2\u6237
p725
F371.49155722326452
sV\u770b\u5230\u4e0d\u662f
p726
F73.744878957169462
sV\u9009\u9519\u8425\u4e1a\u90e8
p727
F73.744878957169462
sV\u6ce8\u518c\u7684
p728
F73.744878957169462
sV\u770b\u5230\u524d\u6bb5\u65f6\u95f4
p729
F73.744878957169462
sV\u4e70\u5165\u5356\u51fa
p730
F214.00558659217876
sV\u7ec4\u5408\u4e3a\u4ec0\u4e48
p731
F73.744878957169462
sV\u544a\u8bc9\u600e\u4e48
p732
F73.744878957169462
sV\u7ed1\u5b9a\u7f16\u53f7
p733
F73.744878957169462
sV\u7ed3\u7b97\u5c31
p734
F214.00558659217876
sV\u6295\u653e\u5e7f\u544a
p735
F73.744878957169462
sV\u7ecf\u5e38\u67e5\u4e0d\u5230
p736
F214.00558659217876
sV\u5177\u4f53\u6301\u4ed3
p737
F73.744878957169462
sV\u8d1f\u8d23\u4e86
p738
F214.00558659217876
sVAPP\u53ea\u80fd
p739
F73.744878957169462
sV\u98ce\u9669\u6d4b\u8bc4
p740
F73.744878957169462
sV\u5fd8\u4e86
p741
F750.01893939393938
sV\u6ca1\u6709\u6539\u8fdb
p742
F214.00558659217876
sV\u627e\u56de\u8c22\u8c22
p743
F147.76492537313433
sV\u7533\u8d2d\u6709\u65f6
p744
F214.00558659217876
sV\u4e0d\u4e86\u662f
p745
F2.1688473520249221
sV\u53d1\u4e00\u4e0b
p746
F73.744878957169462
sV\u95ee\u9898\u5904\u7406
p747
F214.00558659217876
sV\u5374\u770b
p748
F73.744878957169462
sV\u98ce\u9669\u6d4b\u8bd5
p749
F73.744878957169462
sV\u4e0d\u80fd\u7b2c\u4e8c\u6b21
p750
F73.744878957169462
sV\u4e0d\u4f1a\u7535\u8bdd
p751
F214.00558659217876
sV\u670d\u52a1\u5c31
p752
F214.00558659217876
sV\u8bdd\u7834
p753
F214.00558659217876
sV\u6dd8\u91d1\u505c\u6b62
p754
F214.00558659217876
sV\u6ca1\u6709\u4e3a\u4ec0\u4e48
p755
F73.744878957169462
sV\u90fd\u4e0d\u89c1
p756
F214.00558659217876
sV\u79ef\u5206\u8ba2
p757
F73.744878957169462
sV\u6709\u5185\u90e8
p758
F214.00558659217876
sV\u56de\u6765\u554a
p759
F73.744878957169462
sV\u6709\u65f6\u767b\u9646
p760
F73.744878957169462
sV\u8bb0\u5f97\u7f16\u53f7
p761
F73.744878957169462
sV\u6211\u5f00\u901a
p762
F73.744878957169462
sV\u53d6\u56de\u8c22\u8c22
p763
F73.744878957169462
sV\u4e0d\u7b26\u5408
p764
F73.744878957169462
sV\u67e5\u8be2\u529f\u80fd
p765
F214.00558659217876
sV\u4f8b\u5982\u5e02\u76c8\u7387
p766
F73.744878957169462
sV\u7528\u4e0d\u4e86
p767
F313.26029962546818
sV\u8f6c\u4e0d\u4e86
p768
F222.06168224299066
sV\u5df2\u7ecf\u7b7e\u5230
p769
F214.00558659217876
sV\u6cf8\u5929\u5316\u5356\u4e0d\u6389
p770
F73.744878957169462
sV\u6709\u94b1\u4e0d
p771
F73.744878957169462
sV\u62bc\u6ce81010
p772
F214.00558659217876
sV\u8fd9\u9879\u670d\u52a1
p773
F214.00558659217876
sV\u5f88\u662f
p774
F214.00558659217876
sV\u5b89\u4f46\u662f
p775
F73.744878957169462
sV\u8f6c\u51fa
p776
F73.744878957169462
sV\u4e70\u5929\u4fdd
p777
F73.744878957169462
sV\u6309\u9519
p778
F73.744878957169462
sV\u5916\u4e0d\u53ef
p779
F73.744878957169462
sV\u6295\u987e\u7684
p780
F214.00558659217876
sV\u53ef\u4ee5\u627e
p781
F73.744878957169462
sV\u80fd\u5426\u4e3a
p782
F214.00558659217876
sV\u5410\u69fd
p783
F73.744878957169462
sV\u53c2\u4e0e\u7684
p784
F214.00558659217876
sV\u4fe1\u606f\u63d0\u793a
p785
F73.744878957169462
sV\u5982\u4f55\u6dfb\u52a0
p786
F214.00558659217876
sV\u7406\u8d22\u4ea7\u54c1\u8981
p787
F73.744878957169462
sV\u7b7e\u7f72\u98ce\u9669
p788
F214.00558659217876
sV\u4e70\u4e0d\u5230\u4e0a\u5348
p789
F214.00558659217876
sV\u4e0d\u51fa\u6765
p790
F147.76492537313433
sV\u548b\u56de\u4e8b
p791
F214.00558659217876
sV\u79fb\u53c8
p792
F428.80970149253733
sV\u5bc6\u7801\u8bf7\u95ee
p793
F73.744878957169462
sV\u5206\u5728\u54ea\u91cc
p794
F73.744878957169462
sV\u53ef\u4ee5\u627e\u56de
p795
F73.744878957169462
sV\u4e86\u4f1a
p796
F73.744878957169462
sV\u9886\u53d6\u5956\u54c1
p797
F73.744878957169462
sV\u7b97\u5417
p798
F214.00558659217876
sV\u4e0d\u80fd\u89e3\u7ed1
p799
F73.744878957169462
sV\u600e\u4e48\u767b\u9646
p800
F214.00558659217876
sV\u7684\u5199
p801
F214.00558659217876
sV\u589e\u5229\u5229\u7387
p802
F73.744878957169462
sV\u975e\u8981
p803
F214.00558659217876
sV\u8d85\u8fc7\u4e86
p804
F73.744878957169462
sV\u610f\u601d\u6ca1\u6709
p805
F214.00558659217876
sV\u627e\u56de\u554a
p806
F73.744878957169462
sV\u56de\u6765\u5417
p807
F73.744878957169462
sV\u4fe1\u606f\u4e0a\u4f20
p808
F214.00558659217876
sV\u8bf4\u4f63\u91d1
p809
F214.00558659217876
sV\u53bb\u529e\u7406
p810
F214.00558659217876
sV\u8f6c\u8d26\u72b6\u6001
p811
F73.744878957169462
sV\u600e\u4e48\u641e
p812
F214.00558659217876
sV\u6709\u65f6\u5931\u8d25
p813
F214.00558659217876
sV\u529e\u7406\u8d2d\u4e70
p814
F73.744878957169462
sV\u4f60\u4eec\u5e2e
p815
F73.744878957169462
sV\u767b\u5f55\u63d0\u793a
p816
F73.744878957169462
sV\u5b89\u88c5\u540e
p817
F73.744878957169462
sV\u6211\u73a9
p818
F214.00558659217876
sV\u544a\u77e5\u6216
p819
F73.744878957169462
sV\u4e0d\u80fd\u8d4e\u56de
p820
F73.744878957169462
sV\u771f\u5fc3\u70c2
p821
F214.00558659217876
sV\u5c31\u6ca1\u6709
p822
F73.744878957169462
sV\u505c\u6b62\u8fd0\u884c
p823
F214.00558659217876
sV\u600e\u4e48\u4e0d\u4f1a
p824
F73.744878957169462
sV\u8bc4\u4f30\u5417
p825
F73.744878957169462
sV\u7684\u5220\u9664
p826
F214.00558659217876
sV\u627e\u56de\u81ea\u5df1
p827
F73.744878957169462
sV\u6536\u4e0d\u5230\u4fe1\u606f
p828
F73.744878957169462
sV\u9700\u8981\u9690\u85cf
p829
F73.744878957169462
sV\u7ebf\u56fe\u6321\u4f4f
p830
F214.00558659217876
sV\u5982\u4f55\u5f00\u901a
p831
F222.06168224299066
sV\u600e\u4e48\u529e\u767b\u5f55
p832
F73.744878957169462
sV\u6253\u65b0\u80a1
p833
F73.744878957169462
sV\u9875\u9762\u52a0\u8f7d
p834
F214.00558659217876
sV\u5f00\u7684
p835
F73.744878957169462
sV\u600e\u4e48\u56de\u4e8b\u8f93\u8d62
p836
F214.00558659217876
sV\u7f16\u53f7\u67e5\u80a1
p837
F214.00558659217876
sV\u8bf4\u4e8c\u5341\u56db
p838
F214.00558659217876
sV\u65e9\u70b9\u5012\u95ed
p839
F214.00558659217876
sV\u6628\u5929\u5f00\u59cb
p840
F214.00558659217876
sV\u54ea\u91cc\u5f00\u901a
p841
F73.744878957169462
sV\u6301\u4ed3\u80a1\u7968
p842
F73.744878957169462
sV0203\u8bf7
p843
F73.744878957169462
sV\u5ba1\u6838\u901a\u8fc7
p844
F73.744878957169462
sV\u672a\u8d5a
p845
F214.00558659217876
sV\u6536\u76d8\u8dcc
p846
F214.00558659217876
sV\u548c\u7533\u8d2d
p847
F73.744878957169462
sV\u80fd\u5728
p848
F73.744878957169462
sV\u54ea\u91cc\u67e5
p849
F73.744878957169462
sV\u9700\u8981\u7528\u6237
p850
F73.744878957169462
sV\u8c01\u8d1f\u8d23
p851
F73.744878957169462
sV\u54ea\u513f\u80fd
p852
F73.744878957169462
sV\u4e70\u5230\u8fd8\u662f
p853
F214.00558659217876
sV\u6bd4\u5982\u6b21\u65b0\u80a1
p854
F73.744878957169462
sV\u627e\u5230\u6211
p855
F73.744878957169462
sV\u4e0d\u52a8
p856
F73.744878957169462
sV\u53ef\u4ee5\u8c03\u5927
p857
F73.744878957169462
sV\u53ef\u4ee5\u6362
p858
F73.744878957169462
sV\u7edf\u8ba1\u534e\u6cf0
p859
F73.744878957169462
sV\u540c\u6b65\u5bfc\u5165
p860
F73.744878957169462
sV\u9047\u5230\u9001\u8f6c
p861
F214.00558659217876
sV\u8fd8\u6263
p862
F428.80970149253733
sV\u6211\u731c
p863
F214.00558659217876
sV\u79bb\u5f00\u4f60
p864
F214.00558659217876
sV\u4e86\u80fd\u5426
p865
F222.06168224299066
sV\u4e00\u76ee\u4e86\u7136\u5e0c\u671b
p866
F73.744878957169462
sV\u8ba4\u6211
p867
F214.00558659217876
sV\u9ed8\u8ba4\u7684
p868
F214.00558659217876
sV\u5e94\u8be5\u600e\u4e48\u529e
p869
F73.744878957169462
sV\u53e6\u5f00\u901a
p870
F73.744878957169462
sV\u4f59\u989d\u67e5\u8be2
p871
F214.00558659217876
sV\u4e0d\u5165\u5e10
p872
F214.00558659217876
sV\u5f71\u54cd\u64cd\u4f5c
p873
F214.00558659217876
sV\u770b\u5230\u6211
p874
F147.76492537313433
sV\u60f3\u64cd\u4f5c
p875
F214.00558659217876
sV\u94b1\u53bb
p876
F73.744878957169462
sV\u9875\u9762\u6253\u4e0d\u5f00
p877
F73.744878957169462
sV\u7cfb\u7edf\u6263
p878
F428.80970149253733
sV\u600e\u6837\u624d\u80fd\u627e\u56de
p879
F73.744878957169462
sV\u770b\u770b\u81ea\u5df1
p880
F214.00558659217876
sV\u8d26\u53f7\u5bc6\u7801\u5fd8\u8bb0
p881
F73.744878957169462
sV\u6253\u4e0d\u5f00\u9875\u9762
p882
F214.00558659217876
sV\u6211\u62bc\u6ce8
p883
F214.00558659217876
sV\u6321\u4f4f\u770b
p884
F214.00558659217876
sV\u663e\u793a\u4e0e
p885
F214.00558659217876
sV\u663e\u793a\u4e0d
p886
F73.744878957169462
sV\u53ef\u4ee5\u767b\u5f55
p887
F73.744878957169462
sV\u6ca1\u4e0a\u6765
p888
F73.744878957169462
sV\u7ef4\u4fee\u554a
p889
F214.00558659217876
sV\u4e0d\u4e86\u8001
p890
F73.744878957169462
sV\u8fd0\u884c\u901f\u5ea6
p891
F214.00558659217876
sV\u5e0c\u671b\u5e2e\u5fd9
p892
F73.744878957169462
sV\u952e\u5e94\u8be5
p893
F214.00558659217876
sV\u98ce\u9669\u8b66\u793a
p894
F214.00558659217876
sV\u5efa\u8bae\u6539\u8fdb
p895
F214.00558659217876
sV\u90fd\u770b
p896
F214.00558659217876
sV\u641c\u4e0d\u5230
p897
F73.744878957169462
sV\u662f\u5ba1\u6838
p898
F73.744878957169462
sV\u65e9\u4e0a\u5199\u9519
p899
F73.744878957169462
sV\u4e2d\u62cd
p900
F214.00558659217876
sV\u51fa\u73b0\u4e0b\u56fe
p901
F73.744878957169462
sV\u4e86\u544a\u8bc9
p902
F73.744878957169462
sV\u8fdb\u6c34\u6362
p903
F73.744878957169462
sV\u80a1\u6362\u6210
p904
F73.744878957169462
sV\u731c\u6da8\u6263
p905
F214.00558659217876
sV\u62cd\u7167\u5ba2\u6237
p906
F214.00558659217876
sV\u544a\u8bc9\u6211
p907
F73.744878957169462
sV\u80fd\u5426\u663e\u793a
p908
F73.744878957169462
sV\u6dd8\u91d1\u4e0d\u80fd
p909
F73.744878957169462
sV\u5f71\u54cd\u4ea4\u6613
p910
F214.00558659217876
sV\u522b\u4eba\u56de\u7b54
p911
F73.744878957169462
sV\u6ca1\u6709\u7ed9
p912
F214.00558659217876
sV\u54a8\u8be2\u4e0b
p913
F73.744878957169462
sV\u54ea\u91cc\u80fd
p914
F147.76492537313433
sV\u8fd8\u6ca1\u6709
p915
F214.00558659217876
sV\u90fd\u4e0d\u4f1a
p916
F214.00558659217876
sV\u53cd\u590d\u51fa\u73b0
p917
F73.744878957169462
sV\u90fd\u5fd8\u8bb0
p918
F73.744878957169462
sV\u65e9\u77e5\u4e0d\u5f00
p919
F214.00558659217876
sV\u4e8b\u60c5\u8ba9
p920
F214.00558659217876
sV\u67e5\u627e\u4eba\u5458
p921
F73.744878957169462
sV\u8f6c\u5e10\u8bc1\u5238
p922
F214.00558659217876
sV\u67e5\u8be2\u5728
p923
F73.744878957169462
sV\u63a8\u9001\u4ec0\u4e48
p924
F214.00558659217876
sV\u901a\u77e5\u63d0\u793a
p925
F214.00558659217876
sV\u662f12.58
p926
F73.744878957169462
sV\u6d4b\u8bd5\u4e0d
p927
F73.744878957169462
sV\u65b0\u80a1\u7533\u8bf7
p928
F214.00558659217876
sV\u4e0d\u4e86\u81ea\u9009
p929
F214.00558659217876
sV\u6709500
p930
F73.744878957169462
sV\u8f6c\u51fa\u6765
p931
F73.744878957169462
sV\u8d44\u91d1\u4e70
p932
F214.00558659217876
sV\u81f3\u4eca\u6c92\u4e2d
p933
F214.00558659217876
sV\u5206\u6790\u5dee\u5dee
p934
F214.00558659217876
sV\u5fae\u4fe1\u901a\u77e5
p935
F73.744878957169462
sV\u6307\u6807\u8981
p936
F214.00558659217876
sV\u901a\u4e0d\u80fd
p937
F73.744878957169462
sV\u624d\u80fd\u770b\u5230
p938
F73.744878957169462
sV\u624b\u673a\u767b\u9646
p939
F73.744878957169462
sV\u5ba2\u6237\u89c9\u5f97
p940
F214.00558659217876
sV\u4e0d\u4e86\u5462
p941
F73.744878957169462
sV\u6211\u76f8\u4fe1
p942
F214.00558659217876
sV\u8d2d\u4e70\u5462
p943
F73.744878957169462
sV\u4e00\u76f4\u6709
p944
F214.00558659217876
sV\u7ec4\u5408\u53c8
p945
F214.00558659217876
sV\u65f6\u9ed8\u8ba4
p946
F214.00558659217876
sV\u60f3\u67e5\u8be2
p947
F73.744878957169462
sV12.38\u4e70\u5165
p948
F73.744878957169462
sV\u4e0d\u80fd\u7533\u8d2d
p949
F73.744878957169462
sV\u6211\u95ee
p950
F73.744878957169462
sV\u90a3\u4e2a\u653e\u5927
p951
F214.00558659217876
sV\u4e0a\u7528\u6162\u6162
p952
F214.00558659217876
sV\u77e5\u9053\u4ea4\u6613
p953
F73.744878957169462
sV\u5408\u5e76\u65e0\u6cd5
p954
F214.00558659217876
sV\u77e5\u9053\u4e86
p955
F73.744878957169462
sV\u670d\u52a1\u91cc\u9762
p956
F73.744878957169462
sV\u660e\u660e\u6ca1\u6362
p957
F214.00558659217876
sV\u6302\u7f8a\u5934\u4e70
p958
F214.00558659217876
sV\u6ca1\u6709\u65e7\u7248
p959
F214.00558659217876
sV\u65b0\u80a1\u8ba4\u8d2d
p960
F73.744878957169462
sV\u54ea\u91cc\u7b7e\u5230
p961
F73.744878957169462
sV\u901a\u77e5\u5417
p962
F73.744878957169462
sV\u6392\u540d\u90fd
p963
F214.00558659217876
sV\u7535\u8bdd\u6253\u4e0d\u8fdb
p964
F73.744878957169462
sV\u5fd8\u8bb0\u5e7f\u53d1
p965
F73.744878957169462
sV\u4e22\u4e86
p966
F2.1688473520249221
sV\u8981\u6c42\u53d1
p967
F73.744878957169462
sV\u64cd\u4f5c\u8f6f\u4ef6
p968
F428.80970149253733
sV\u8981\u5728
p969
F73.744878957169462
sV\u641e\u5230
p970
F73.744878957169462
sV\u5f04\u597d
p971
F73.744878957169462
sV\u6362\u624b\u673a
p972
F147.76492537313433
sV\u8f93\u4e86
p973
F214.00558659217876
sV\u600e\u4e48\u4e0d\u89c1
p974
F147.76492537313433
sV\u600e\u4e48\u4fdd\u5b58
p975
F73.744878957169462
sV\u4e86\u8981
p976
F18.28358208955224
sV\u60f3\u5f00\u901a
p977
F73.744878957169462
sV\u63d0\u73b0\u63d0
p978
F73.744878957169462
sV\u5151\u6362\u65b9\u5f0f
p979
F73.744878957169462
sV\u4e0d\u9519\u53ef
p980
F73.744878957169462
sV\u6309\u64cd\u4f5c
p981
F73.744878957169462
sV\u5546\u57ce\u9886\u53d6
p982
F73.744878957169462
sV\u4e3a\u4ec0\u4e48\u8d2d
p983
F73.744878957169462
sV\u77ed\u4fe1\u9001
p984
F214.00558659217876
sV\u589e\u52a0120
p985
F73.744878957169462
sV\u770b\u666e\u901a
p986
F73.744878957169462
sV\u53c8\u4e0d\u80fd
p987
F73.744878957169462
sV\u4e0d\u5230\u7684
p988
F73.744878957169462
sV\u51fa\u6765\u7528
p989
F214.00558659217876
sV\u7684\u6295\u8d44
p990
F73.744878957169462
sV\u8e66\u4e3a\u4f55
p991
F214.00558659217876
sV\u4e0d\u6392\u9664
p992
F214.00558659217876
sV\u5fd8\u8bb0\u5e10\u53f7
p993
F73.744878957169462
sV\u56fe\u8868\u7edf\u8ba1
p994
F73.744878957169462
sV\u6309\u5230
p995
F73.744878957169462
sV\u4f1a\u5f20
p996
F73.744878957169462
sV\u6263\u4e86
p997
F1734.6566037735849
sV\u6ca1\u6709\u8054\u7cfb\u4eba
p998
F73.744878957169462
sV\u7ed9\u56de\u590d
p999
F214.00558659217876
sV\u7684\u767b\u5f55
p1000
F73.744878957169462
sV\u8d44\u91d1\u8f6c
p1001
F73.744878957169462
sV\u5e10\u6237\u662f
p1002
F73.744878957169462
sV\u53c8\u6ca1
p1003
F73.744878957169462
sV\u6539\u5f97
p1004
F214.00558659217876
sV\u8bf7\u95ee\u600e\u4e48
p1005
F73.744878957169462
sV\u4e0d\u4e86\u4ea4\u6613
p1006
F214.00558659217876
sV\u5356\u7684
p1007
F73.744878957169462
sV\u6700\u540e\u6ca1
p1008
F214.00558659217876
sV\u4e88\u4ee5\u5e72\u6d89
p1009
F214.00558659217876
sV\u5230\u7ea2\u5305
p1010
F73.744878957169462
sV\u6709\u5ba2\u6237\u7ecf\u7406
p1011
F214.00558659217876
sV\u89e3\u51b3\u5c45\u7136
p1012
F214.00558659217876
sV\u6253\u4e0d\u4e86
p1013
F214.00558659217876
sV\u6362\u80a1
p1014
F73.744878957169462
sV\u91cc\u9762\u8f93\u5165
p1015
F73.744878957169462
sV\u91cd\u65b0\u6253\u5f00
p1016
F73.744878957169462
sV\u771f\u5947\u602a
p1017
F214.00558659217876
sV\u63d0\u793a\u5931\u8d25
p1018
F214.00558659217876
sV\u4ec0\u4e48\u662f
p1019
F147.76492537313433
sV\u4e70\u4e0d\u5230\u53c8
p1020
F214.00558659217876
sV\u53d6\u6d88\u73b0\u91d1
p1021
F73.744878957169462
sV\u5728\u670d\u52a1
p1022
F73.744878957169462
sV\u8fd8\u6709\u8fd9\u4e9b
p1023
F214.00558659217876
sV\u8981\u591a\u5c11
p1024
F73.744878957169462
sV\u8c03\u6574\u80a1\u7968\u4ea4\u6613
p1025
F214.00558659217876
sV\u94a2\u8e66
p1026
F18.28358208955224
sV\u6da8\u8dcc\u90fd
p1027
F214.00558659217876
sV\u4e25\u91cd\u4e0d\u7b26
p1028
F214.00558659217876
sV\u94f6\u884c\u8f6c
p1029
F2.1688473520249221
sV\u4e0a\u4f20\u4e0d\u4e86
p1030
F428.80970149253733
sV\u5c31\u53d6\u6d88
p1031
F214.00558659217876
sV\u4e0d\u80fd\u94f6\u8bc1
p1032
F214.00558659217876
sV\u8c03\u6574\u7684
p1033
F214.00558659217876
sV\u4e0d\u4e86\u6211
p1034
F73.744878957169462
sV\u7ec4\u5408\u70b9
p1035
F214.00558659217876
sV\u770b\u5230\u6bcf\u65e5
p1036
F73.744878957169462
sV\u8981\u600e\u4e48
p1037
F73.744878957169462
sV\u63a5\u6536\u7684
p1038
F214.00558659217876
sV\u53f7\u67e5
p1039
F73.744878957169462
sV\u8bc1\u5238\u80fd
p1040
F214.00558659217876
sV\u6253\u65b0\u4e07\u4e00
p1041
F73.744878957169462
sV\u5e2e\u6211\u79d1
p1042
F73.744878957169462
sV\u8d26\u53f7\u5fd8
p1043
F73.744878957169462
sV\u80a1\u4efd\u6302
p1044
F73.744878957169462
sV\u529f\u80fd\u53d6\u6d88
p1045
F73.744878957169462
sV\u600e\u4e48\u6c92\u4e86
p1046
F214.00558659217876
sV\u53f3\u4e0a\u89d2\u63a5\u6536
p1047
F214.00558659217876
sV\u5931\u671b\u597d
p1048
F214.00558659217876
sV\u6ca1\u6709\u5ba2\u6237
p1049
F73.744878957169462
sV\u6ca1\u6709\u56de\u7b54
p1050
F73.744878957169462
sV\u67e5\u770b\u5404\u79cd
p1051
F73.744878957169462
sV\u4e0d\u7136\u53ea\u80fd
p1052
F214.00558659217876
sV\u662f\u4e71\u7684
p1053
F428.80970149253733
sV\u4e70\u521b\u4e1a
p1054
F73.744878957169462
sV\u591a\u5c11\u8fd8\u6709
p1055
F73.744878957169462
sV\u6ca1\u6536\u5230
p1056
F73.744878957169462
sV\u5403\u7684
p1057
F214.00558659217876
sV\u5982\u4f55\u53d6\u56de
p1058
F73.744878957169462
sV\u6211\u4f1a\u81ea\u52a8
p1059
F214.00558659217876
sV\u5e10\u53f7\u5bc6\u7801\u5fd8\u8bb0
p1060
F73.744878957169462
sV\u5386\u53f2\u67e5\u8be2
p1061
F73.744878957169462
sV\u53ef\u5728
p1062
F73.744878957169462
sV\u641c\u7d22\u680f
p1063
F214.00558659217876
sV\u8fdb\u5165\u4e0d\u4e86
p1064
F73.744878957169462
sV\u914d\u552e\u600e\u4e48
p1065
F73.744878957169462
sV\u7b7e\u800c
p1066
F214.00558659217876
sV\u8bc1\u5238\u7ed1\u5b9a
p1067
F73.744878957169462
sV\u8bc4\u6d4b\u4fe1\u606f
p1068
F73.744878957169462
sV\u4e0d\u89c1\u6709
p1069
F73.744878957169462
sV\u7684\u63d0\u95ee
p1070
F18.28358208955224
sV\u5ba1\u6279\u65f6
p1071
F73.744878957169462
sV\u4e0d\u77e5\u4ec0\u4e48\u6837
p1072
F73.744878957169462
sV\u8d26\u6237\u4e0d\u80fd
p1073
F214.00558659217876
sV\u4f63\u91d1\u662f
p1074
F2.1688473520249221
sV\u80fd\u770b\u5230
p1075
F147.76492537313433
sV\u770bk
p1076
F214.00558659217876
sV\u5e0c\u671b\u53ef\u4ee5
p1077
F147.76492537313433
sV\u77ed\u4fe1\u5b9e\u9a8c
p1078
F214.00558659217876
sV\u4e0d\u4f1a\u6539
p1079
F214.00558659217876
sV\u5f71\u54cd\u5417
p1080
F73.744878957169462
sV\u529e\u6cd5\u627e
p1081
F73.744878957169462
sV\u9001\u6765500
p1082
F214.00558659217876
sV\u51fa\u95ee\u9898
p1083
F18.28358208955224
sV\u67e5\u4e0b\u81ea\u5df1
p1084
F214.00558659217876
sV\u9047\u5230\u7684
p1085
F73.744878957169462
sV\u8003\u8651\u6362
p1086
F214.00558659217876
sV\u662f\u5426\u53ef\u4ee5
p1087
F18.28358208955224
sV\u8bf7\u770b
p1088
F73.744878957169462
sV\u624d\u80fd\u89e3\u51b3
p1089
F73.744878957169462
sV\u4e70\u5356\u80a1\u7968
p1090
F73.744878957169462
sV\u4e86\u70b9\u51fb
p1091
F73.744878957169462
sV\u66f4\u6362\u4e86
p1092
F73.744878957169462
sV\u5982\u4f55\u66f4\u6362
p1093
F147.76492537313433
sV\u80fd\u67e5\u5230
p1094
F73.744878957169462
sV\u6211\u8f93\u5165
p1095
F214.00558659217876
sV\u5df2\u7ecf\u6ce8\u518c
p1096
F73.744878957169462
sV\u6211\u4e70\u6da8
p1097
F214.00558659217876
sV\u8c03\u8bd5\u4e86
p1098
F73.744878957169462
sV\u5e0c\u671b\u5e7f\u53d1
p1099
F214.00558659217876
sV\u600e\u6837\u66f4\u6539
p1100
F73.744878957169462
sV\u53ea\u80fd\u663e\u793a
p1101
F73.744878957169462
sV\u8981\u626b\u8d27
p1102
F73.744878957169462
sV\u5e94\u8be5\u5728
p1103
F73.744878957169462
sV\u6211\u4e0d\u4f1a
p1104
F73.744878957169462
sV\u4e07\u914d\u552e
p1105
F73.744878957169462
sV\u8981\u7528
p1106
F73.744878957169462
sV\u90fd\u5356\u5b8c
p1107
F214.00558659217876
sV\u662f\u52a8\u6001
p1108
F214.00558659217876
sV\u51fa\u73b0\u54a8\u8be2
p1109
F214.00558659217876
sV\u62ff\u51fa\u6765
p1110
F428.80970149253733
sV\u4e0d\u600e\u4e48\u52a8
p1111
F73.744878957169462
sV\u7f3a\u5c11\u8d44\u6599
p1112
F73.744878957169462
sV\u670d\u52a1\u592a
p1113
F214.00558659217876
sV\u8bf4\u8fd9\u79cd
p1114
F214.00558659217876
sV\u4e0a\u4f20\u603b
p1115
F214.00558659217876
sV\u5e76\u6ca1\u6709
p1116
F214.00558659217876
sV\u9700\u8981\u4ec0\u4e48
p1117
F73.744878957169462
sV\u8ba9\u62cd\u7167
p1118
F214.00558659217876
sV\u51fa\u9519\u6ca1
p1119
F214.00558659217876
sV\u6539\u6210\u8fd9\u6837
p1120
F214.00558659217876
sV\u4e3a\u5151\u73b0
p1121
F214.00558659217876
sV\u9a97\u5e0c\u671b
p1122
F73.744878957169462
sV\u4e3a\u4ec0\u4e48\u4f1a
p1123
F214.00558659217876
sV\u8981\u6211\u4eec
p1124
F214.00558659217876
sV\u7ed1\u5b9a\u4e0d\u4e86
p1125
F73.744878957169462
sV\u4e0b\u6ce8\u5386\u53f2
p1126
F214.00558659217876
sV\u8d5a\u662f
p1127
F214.00558659217876
sV\u8bf4\u597d\u7684
p1128
F73.744878957169462
sV\u56de\u539f\u6765
p1129
F73.744878957169462
sV\u529f\u80fd\u6709
p1130
F214.00558659217876
sV\u7b7e\u5230\u591a\u65e5
p1131
F214.00558659217876
sV\u9009\u62e9\u5e7f\u53d1
p1132
F214.00558659217876
sV\u754c\u9762\u6253\u4e0d\u5f00
p1133
F214.00558659217876
sV\u4e0b\u8f7d\u5b89\u88c5\u5305
p1134
F73.744878957169462
sV\u5f39\u51fa\u4e00\u4e2a
p1135
F73.744878957169462
sV\u6346\u7ed1\u624b\u673a
p1136
F73.744878957169462
sV\u8bf4\u6ca1\u6709
p1137
F18.28358208955224
sV\u4e86\u6295\u6ce8
p1138
F214.00558659217876
sV\u7b26\u5408\u8fd9\u6b21
p1139
F73.744878957169462
sV\u7ed1\u5b9a\u65b0\u624b\u673a
p1140
F73.744878957169462
sV\u518d\u6b21\u8bc4\u6d4b
p1141
F73.744878957169462
sV\u670d\u52a1\u7f51\u4e0a
p1142
F73.744878957169462
sV\u65b0\u80a1\u6253
p1143
F214.00558659217876
sV\u8d44\u91d1\u8f6c\u5165
p1144
F147.76492537313433
sV\u600e\u4e48\u529e\u5e94\u8be5
p1145
F73.744878957169462
sV\u6c92\u4e2d\u8fc7
p1146
F214.00558659217876
sV\u624b\u7eed\u5728
p1147
F73.744878957169462
sV\u8bf7\u4f60\u4eec
p1148
F214.00558659217876
sV\u8d2d\u4e70\u7684
p1149
F147.76492537313433
sV\u4e86\u8bf7
p1150
F18.28358208955224
sV\u6709\u5c31
p1151
F73.744878957169462
sV\u624b\u673a\u80fd
p1152
F73.744878957169462
sV\u6ca1\u6709\u6700\u540e
p1153
F214.00558659217876
sV\u4e70\u80a1
p1154
F214.00558659217876
sV\u600e\u6837\u624d\u80fd\u53d6\u56de
p1155
F73.744878957169462
sV\u77e5\u9053\u662f\u4e0d\u662f
p1156
F214.00558659217876
sV\u8fd9\u91cc\u67e5\u4e0d\u5230
p1157
F73.744878957169462
sV\u7ec4\u5408\u4ece
p1158
F214.00558659217876
sV\u8ba9\u4eba
p1159
F214.00558659217876
sV\u53f3\u4e0b\u89d2\u662f
p1160
F214.00558659217876
sV\u7ec4\u5408\u6295\u8d44
p1161
F214.00558659217876
sV\u5931\u671b\u8fd9
p1162
F214.00558659217876
sV\u7ed9\u7b54\u590d
p1163
F214.00558659217876
sV\u8ba1\u7b97\u6709\u8bef
p1164
F214.00558659217876
sV\u4e8c\u6b21\u53cd\u5e94
p1165
F214.00558659217876
sV\u600e\u4e48\u627e
p1166
F222.06168224299066
sV\u635f\u574f\u521a
p1167
F73.744878957169462
sV\u4e0d\u5230\u77ed\u4fe1
p1168
F214.00558659217876
sV\u8bbe\u7f6e\u6709\u70b9
p1169
F214.00558659217876
sV\u6bcf\u6b21\u64cd\u4f5c
p1170
F214.00558659217876
sV\u6dd8\u91d1\u8f6c
p1171
F73.744878957169462
sV\u600e\u4e48\u529e\u4e0d\u4e86
p1172
F73.744878957169462
sV\u8bf7\u95ee\u6211
p1173
F371.49155722326452
sV\u52a0\u5f3a\u8d35
p1174
F214.00558659217876
sV\u9009\u62e9\u76f8\u5173
p1175
F73.744878957169462
sV500\u5206\u5728
p1176
F73.744878957169462
sV\u5230\u671f\u60f3
p1177
F73.744878957169462
sV\u90fd\u8bf4
p1178
F428.80970149253733
sV\u6d4b\u8bd50203
p1179
F73.744878957169462
sV\u600e\u6837\u627e\u5230
p1180
F73.744878957169462
sV\u770b\u5230\u4f60\u4eec
p1181
F73.744878957169462
sV\u67e5\u627e\u8def\u5f84
p1182
F73.744878957169462
sV\u4e0b\u8dcc\u6211
p1183
F214.00558659217876
sV\u662f\u600e\u4e48\u56de\u4e8b
p1184
F147.76492537313433
sV\u6ca1\u53cd\u5e94
p1185
F214.00558659217876
sV\u6240\u4ee5\u7ed1\u5b9a
p1186
F73.744878957169462
sV\u6ca1\u95ee\u9898
p1187
F73.744878957169462
sV\u770b\u4e00\u4e0b
p1188
F18.28358208955224
sV\u6ca1\u6709\u6211
p1189
F73.744878957169462
sV\u8865\u8bf7\u5c3d\u5feb
p1190
F214.00558659217876
sV\u7533\u8d2d\u4e0a\u6d77
p1191
F73.744878957169462
sV\u53ef\u4ee5\u8c03\u8282
p1192
F73.744878957169462
sV\u5b98\u7f51\u4e0b\u8f7d
p1193
F214.00558659217876
sV\u53ef\u529e\u7406
p1194
F214.00558659217876
sV\u6765\u81ea\u534e\u4e3a
p1195
F73.744878957169462
sV\u4e0b\u8f7d\u9875\u4e0b\u8f7d
p1196
F214.00558659217876
sV\u7b7e\u5230\u770b\u5230
p1197
F73.744878957169462
sV\u662f\u4e00\u4e2a
p1198
F214.00558659217876
sV\u505c\u4e86
p1199
F214.00558659217876
sV\u6839\u672c\u6ca1\u6709
p1200
F214.00558659217876
sV\u8ba1\u7b97\u4e0d
p1201
F214.00558659217876
sV\u80a1\u7533\u8d2d
p1202
F73.744878957169462
sV\u8bf7\u95ee\u7533\u8d2d
p1203
F73.744878957169462
sV\u7684\u5931\u671b
p1204
F214.00558659217876
sV\u7ed9\u63d0\u793a
p1205
F73.744878957169462
sV\u8bf7\u95ee\u4e00\u4e0b
p1206
F73.744878957169462
sV\u662f\u6dd8\u91d1
p1207
F73.744878957169462
sV\u6709\u5f71\u54cd
p1208
F73.744878957169462
sV\u4e0d\u5230\u8bf4
p1209
F214.00558659217876
sV\u4e86\u663e\u793a
p1210
F214.00558659217876
sV\u6307\u7eb9\u767b\u9646
p1211
F73.744878957169462
sV\u5f00\u6237\u4e0d\u80fd
p1212
F73.744878957169462
sV\u7ec4\u5408\u4e0d
p1213
F214.00558659217876
sV\u786e\u8ba4\u540e
p1214
F73.744878957169462
sV\u53cd\u6620\u771f
p1215
F214.00558659217876
sV\u600e\u4e48\u66f4\u6539
p1216
F147.76492537313433
sV\u79ef\u5206\u662f
p1217
F214.00558659217876
sV\u5361\u5230
p1218
F214.00558659217876
sV\u5ba2\u6237\u7aef\u6c42
p1219
F214.00558659217876
sV\u53ef\u4ee5\u66f4\u6539
p1220
F73.744878957169462
sV\u8ffd\u7a76\u4ec0\u4e48
p1221
F214.00558659217876
sV\u56de\u5230\u8d26
p1222
F73.744878957169462
sV\u5173\u95ed\u9875\u9762
p1223
F73.744878957169462
sV\u518d\u53bb
p1224
F428.80970149253733
sV\u505a\u5f97\u597d\u70b9
p1225
F214.00558659217876
sV\u4e2a\u4eba\u662f
p1226
F214.00558659217876
sV\u70b9\u5f00
p1227
F73.744878957169462
sV\u5df2\u63d0\u51fa
p1228
F214.00558659217876
sV\u67e5\u8be2\u6e05\u4ed3
p1229
F73.744878957169462
sV\u641e\u4e2a
p1230
F214.00558659217876
sV\u53d8\u66f4\u4e0d\u4e86
p1231
F73.744878957169462
sV\u641e\u4e22
p1232
F214.00558659217876
sV\u5ba2\u6237\u63d0\u9192
p1233
F214.00558659217876
sV\u5982\u4f55\u64cd\u4f5c
p1234
F222.06168224299066
sV\u662f\u8fd9\u6837
p1235
F214.00558659217876
sV\u624b\u673a\u7533\u8bf7
p1236
F214.00558659217876
sV\u4e0d\u662f\u5e94\u8be5
p1237
F73.744878957169462
sV\u67e5\u8be2\u4f59\u989d
p1238
F73.744878957169462
sV\u5bf9\u63a5\u7684
p1239
F73.744878957169462
sV\u5df1\u63d0\u4ea4
p1240
F214.00558659217876
sV\u964d\u4f4e\u70b9
p1241
F214.00558659217876
sV\u5982\u4f55\u77e5\u9053
p1242
F73.744878957169462
sV\u6709\u95ee\u9898
p1243
F214.00558659217876
sV\u6d4b\u8bd5\u6570\u636e\u8bf7
p1244
F147.76492537313433
sV\u600e\u4e48\u6301\u4ed3
p1245
F73.744878957169462
sV\u6ca1\u6709\u5747\u7ebf
p1246
F73.744878957169462
sV\u663e\u793a\u5f53\u65e5
p1247
F73.744878957169462
sV\u4ea4\u6613\u5e94\u8be5
p1248
F73.744878957169462
sV\u4e0d\u518d\u63d0\u9192
p1249
F73.744878957169462
sV\u677f\u8001\u51fa\u73b0
p1250
F214.00558659217876
sV\u4e0d\u5230\u5f00\u6237
p1251
F73.744878957169462
sV\u79ef\u5206\u663e\u793a
p1252
F214.00558659217876
sV\u60f3\u597d
p1253
F214.00558659217876
sV\u9009\u62e9\u7684
p1254
F214.00558659217876
sV\u8f6f\u4ef6\u505a
p1255
F73.744878957169462
sV\u5f00\u901a\u90a3
p1256
F73.744878957169462
sV\u5374\u6ca1\u6709
p1257
F214.00558659217876
sV\u6211\u8981
p1258
F55.263157894736842
sV\u5bfc\u51fa\u5386\u53f2
p1259
F73.744878957169462
sV\u8d44\u91d1\u5165\u8d26
p1260
F73.744878957169462
sV\u53bb\u770b
p1261
F214.00558659217876
sV\u90fd\u4e70\u4e0d\u5230
p1262
F214.00558659217876
sV\u4e0b\u8f7d\u4e0d\u5230
p1263
F214.00558659217876
sV\u65e5\u6295\u6ce8
p1264
F214.00558659217876
sV\u600e\u6837\u627e\u56de
p1265
F147.76492537313433
sV\u8001\u5f39\u51fa
p1266
F214.00558659217876
sV\u8d26\u6237\u767b\u9646
p1267
F73.744878957169462
sV\u8fdb\u53bb\u731c
p1268
F214.00558659217876
sV\u5982\u4f55\u770b\u5230
p1269
F73.744878957169462
sV\u8425\u4e1a\u5385\u662f
p1270
F73.744878957169462
sV\u6ca1\u6709\u66f4\u65b0
p1271
F644.41682242990657
sV\u5fd8\u8bb0\u8bc1\u5238
p1272
F73.744878957169462
sV\u624b\u7eed\u8d39\u8c03\u4f4e
p1273
F214.00558659217876
sV\u767b\u9646\u8d26\u53f7
p1274
F73.744878957169462
sV\u603b\u4e0d\u884c
p1275
F214.00558659217876
sV\u5e7f\u53d1\u670d\u52a1
p1276
F214.00558659217876
sV\u90fd\u6ca1\u6709
p1277
F1078.0581613508443
sV\u4e70\u5356\u624b\u7eed\u8d39
p1278
F214.00558659217876
sV\u5206\u4f46
p1279
F214.00558659217876
sV\u6709\u63d0\u793a
p1280
F147.76492537313433
sV\u9700\u52a0\u5f3a
p1281
F214.00558659217876
sV\u51fa\u6545\u969c
p1282
F214.00558659217876
sV\u5e2e\u5fd9\u7ed9
p1283
F73.744878957169462
sV\u8d2d\u80a1
p1284
F73.744878957169462
sV\u786e\u8ba4\u952e
p1285
F214.00558659217876
sV\u5230\u6b7b
p1286
F214.00558659217876
sV\u663e\u793a\u5df1
p1287
F214.00558659217876
sV\u77e5\u9053\u5e7f\u53d1
p1288
F73.744878957169462
sV\u6302\u7684
p1289
F73.744878957169462
sV\u4fe1\u606f\u53d8\u66f4
p1290
F73.744878957169462
sV\u7535\u8bdd\u544a\u77e5
p1291
F73.744878957169462
sV\u6301\u4ed3\u7b80\u6613
p1292
F214.00558659217876
sV\u672c\u4eba\u5230
p1293
F214.00558659217876
sV\u63d0\u793a\u9ebb\u70e6
p1294
F73.744878957169462
sV\u77e5\u9053\u6709\u6ca1\u6709
p1295
F73.744878957169462
sV\u5e10\u53f7\u5fd8\u8bb0
p1296
F296.63670411985021
sV\u6295\u8d44\u9002\u5408
p1297
F214.00558659217876
sV\u65b0\u80a1\u6709
p1298
F73.744878957169462
sV\u5450\u8bf7
p1299
F73.744878957169462
sV\u8981\u6c42\u8c03\u6574
p1300
F214.00558659217876
sV\u7ec4\u5408\u8fdf\u8fdf
p1301
F214.00558659217876
sV\u63d0\u793a\u5374
p1302
F73.744878957169462
sV\u7535\u8111\u6ca1\u6709
p1303
F73.744878957169462
sV\u62e6\u4f4f\u4e86
p1304
F214.00558659217876
sV\u90fd\u8981
p1305
F214.00558659217876
sV\u5151\u6362\u94a2\u955a\u4e86
p1306
F73.744878957169462
sV\u67e5\u4e0b\u6211
p1307
F73.744878957169462
sV\u6765\u4fe1\u544a\u77e5
p1308
F73.744878957169462
sV\u4e8f\u76c8\u5e0c\u671b
p1309
F73.744878957169462
sV\u8f6f\u4ef6\u52b3\u8d44
p1310
F214.00558659217876
sV\u7684\u670d\u52a1
p1311
F73.744878957169462
sV\u73b0\u767b\u5f55
p1312
F73.744878957169462
sV\u53f7\u627e
p1313
F73.744878957169462
sV\u8d26\u53f7\u5fd8\u8bb0
p1314
F522.04708097928437
sV\u4e0d\u4e86\u7f16\u53f7
p1315
F214.00558659217876
sV\u4e86\u5fd8\u8bb0
p1316
F73.744878957169462
sV\u7ec4\u5408\u6ca1
p1317
F214.00558659217876
sV\u4e3a\u4f55\u6536\u4e0d\u5230
p1318
F73.744878957169462
sV\u591a\u6b21\u8bf7
p1319
F214.00558659217876
sV\u8d2d\u4e70\u77ed\u4fe1
p1320
F73.744878957169462
sV\u4e07\u4e09\u7b97
p1321
F214.00558659217876
sV\u54ea\u91cc\u770b
p1322
F73.744878957169462
sV\u5fd8\u8bb0\u662f
p1323
F73.744878957169462
sV\u7f3a\u5931\u5e94
p1324
F214.00558659217876
sV\u4e0d\u4e86\u660e\u660e
p1325
F214.00558659217876
sV\u6ca1\u4eba\u5de5
p1326
F73.744878957169462
sV\u4ea4\u6613\u4e0d\u4e86
p1327
F428.80970149253733
sV\u8fdf\u8fdf\u4e0d\u80fd
p1328
F214.00558659217876
sV\u66f4\u6362\u8bc1\u5238\u516c\u53f8
p1329
F214.00558659217876
sV\u4e00\u4e2a\u63d0\u9192
p1330
F214.00558659217876
sV\u56e0\u4e3a\u7533\u8d2d
p1331
F73.744878957169462
sV\u4e0d\u80fd\u4ea4\u6613
p1332
F147.76492537313433
sV\u5356\u6389\u80a1\u7968
p1333
F73.744878957169462
sV\u6253\u4e0d\u5230
p1334
F214.00558659217876
sV\u4e3a\u4ec0\u4e48\u5230
p1335
F73.744878957169462
sV\u589e\u52a0\u770b\u76d8
p1336
F73.744878957169462
sV\u6211\u7533\u8bf7
p1337
F214.00558659217876
sV\u6211\u5df1\u8d2d\u4e70
p1338
F73.744878957169462
sV\u7ecf\u7406\u5e0c\u671b
p1339
F214.00558659217876
sV\u4e0d\u56de\u7b54
p1340
F214.00558659217876
sV\u4e3a\u4ec0\u4e48\u63d0\u793a
p1341
F73.744878957169462
sV\u624b\u673a\u635f\u574f
p1342
F73.744878957169462
sV\u63d0\u793a\u5bc6\u7801
p1343
F73.744878957169462
sV\u6709\u9700\u8981
p1344
F73.744878957169462
sV\u65e5\u731c\u8dcc
p1345
F214.00558659217876
sV\u975e\u5e38\u5931\u671b
p1346
F214.00558659217876
sV\u53c2\u4e0e\u4e86
p1347
F428.80970149253733
sV\u5c24\u5176\u662f
p1348
F214.00558659217876
sV\u6839\u672c\u505a\u4e0d\u4e86
p1349
F214.00558659217876
sV\u5ba2\u6237\u7aef\u4e0b\u8f7d
p1350
F214.00558659217876
sV\u53bb\u8ffd\u7a76
p1351
F214.00558659217876
sV\u91cc\u9762\u627e
p1352
F214.00558659217876
sV\u5c0f\u952e\u76d8\u5207\u6362
p1353
F73.744878957169462
sV\u79ef\u5206\u641e
p1354
F214.00558659217876
sV\u4e5f\u6ca1\u6709
p1355
F18.28358208955224
sV\u5783\u573e\u4e0d\u80fd
p1356
F214.00558659217876
sV\u6211\u8bf4
p1357
F214.00558659217876
sV\u770b\u7740\u600e\u4e48
p1358
F214.00558659217876
sV\u731c\u4e2d\u4e86
p1359
F214.00558659217876
sV\u5065\u62e6\u4f4f
p1360
F214.00558659217876
sV\u4e86\u770b
p1361
F214.00558659217876
sV\u7ec4\u5408\u4e4b\u524d
p1362
F214.00558659217876
sV\u4e0d\u80fd\u8d2d\u4e70
p1363
F73.744878957169462
sV\u6ca1\u63d0\u793a
p1364
F214.00558659217876
sV\u662f\u4e3a\u4ec0\u4e48
p1365
F18.28358208955224
sV\u64cd\u7eb5\u6211
p1366
F214.00558659217876
sV\u5f3a\u7248\u8f6f\u4ef6
p1367
F73.744878957169462
sV\u6253\u7535\u8bdd\u9a9a\u6270
p1368
F214.00558659217876
sV\u5199\u9519\u51e0\u6b21
p1369
F73.744878957169462
sV\u63d0\u793a\u771f\u662f
p1370
F214.00558659217876
sV\u5747\u7ebf\u8bbe\u7f6e
p1371
F18.28358208955224
sV\u8ba9\u4f7f\u7528\u8005
p1372
F214.00558659217876
sV\u6295\u8bc9\u4f60\u4eec
p1373
F214.00558659217876
sV\u8d44\u91d1\u56de\u5230
p1374
F73.744878957169462
sV\u8d26\u53f7\u627e
p1375
F73.744878957169462
sV\u6210\u672c\u4ef7\u8ba1\u7b97
p1376
F214.00558659217876
sV\u4e0d\u8d1f\u8d23\u4efb\u8c01\u6765\u7ba1
p1377
F214.00558659217876
sV\u7684\u6d88\u8d39
p1378
F73.744878957169462
sV\u80fd\u4e0d\u80fd
p1379
F313.26029962546818
sV\u4e70\u7406\u8d22\u4ea7\u54c1
p1380
F73.744878957169462
sV\u6211\u8ba2
p1381
F73.744878957169462
sV\u8c03\u6574\u5230
p1382
F73.744878957169462
sV\u600e\u4e48\u901a\u77e5
p1383
F73.744878957169462
sV\u662f\u5783\u573e
p1384
F214.00558659217876
sV\u8f6c\u8d26\u8981\u52a0
p1385
F73.744878957169462
sV\u8981\u8003\u8651
p1386
F214.00558659217876
sV\u5982\u4f55\u67e5\u627e
p1387
F73.744878957169462
sV\u4f5c\u5e9f\u4e5f
p1388
F214.00558659217876
sV\u6539\u771f\u662f
p1389
F214.00558659217876
sV\u600e\u4e48\u67e5\u627e
p1390
F73.744878957169462
sV\u600e\u4e48\u4f20\u4e0a\u53bb
p1391
F73.744878957169462
sV\u52a8\u5f39\u51fa
p1392
F428.80970149253733
sV\u6da8\u8dcc\u731c\u5bf9
p1393
F214.00558659217876
sV\u66f2\u7ebf\u4e0d\u60f3
p1394
F73.744878957169462
sV\u600e\u6837\u624d\u80fd\u770b\u5230
p1395
F73.744878957169462
sV\u77ed\u606f\u901a\u77e5
p1396
F214.00558659217876
sV\u52a0\u4e00\u4e2a
p1397
F73.744878957169462
sV\u6dd8\u91d1\u770b\u4e0d\u5230
p1398
F214.00558659217876
sV\u6709\u6bb5\u65f6\u95f4
p1399
F73.744878957169462
sV\u6211\u63d0\u73b0
p1400
F73.744878957169462
sV\u4e0b\u6ce8\u79ef\u5206
p1401
F214.00558659217876
sV\u540e\u7eed\u6709
p1402
F214.00558659217876
sV\u767b\u5f55\u4e0d
p1403
F147.76492537313433
sV\u901a\u7528\u6237\u540d
p1404
F73.744878957169462
sV\u521a\u4e0b\u8f7d
p1405
F73.744878957169462
sV\u767b\u9646\u5e10\u53f7
p1406
F73.744878957169462
sV\u627e\u56de\u8d26\u53f7
p1407
F73.744878957169462
sV\u65f6\u4e0d\u80fd
p1408
F73.744878957169462
sV\u52b3\u8d44\u9500\u6237
p1409
F214.00558659217876
sV\u4ea4\u6613\u6709
p1410
F73.744878957169462
sV\u4e0d\u5230\u4ea4\u6613
p1411
F214.00558659217876
sV\u4ec0\u663e\u793a
p1412
F73.744878957169462
sV\u91cd\u88c5\u7cfb\u7edf\u5fd8
p1413
F73.744878957169462
sV\u53c8\u79fb
p1414
F428.80970149253733
sV\u6295\u987e\u670d\u52a1
p1415
F214.00558659217876
sV\u50cf\u5176\u4ed6\u8f6f\u4ef6
p1416
F73.744878957169462
sV\u5fc5\u987b\u8981
p1417
F73.744878957169462
sV\u8bf7\u516c\u53f8
p1418
F214.00558659217876
sV\u8f6c\u8d26\u94f6\u884c\u5361
p1419
F73.744878957169462
sV\u662f\u589e
p1420
F73.744878957169462
sV\u5b89\u5168\u63a8\u51fa
p1421
F73.744878957169462
sV340223196403087448\u67e5\u8be2
p1422
F73.744878957169462
sV\u624d\u80fd\u627e
p1423
F73.744878957169462
sV\u6389\u7ebf\u505a
p1424
F214.00558659217876
sV10\u731c
p1425
F214.00558659217876
sV\u53c2\u8003\u4e2d\u6295
p1426
F214.00558659217876
sV\u5012\u95ed\u522b
p1427
F214.00558659217876
sV\u79ef\u5206\u4e0d\u89c1
p1428
F214.00558659217876
sV\u7684\u878d\u8d44
p1429
F73.744878957169462
sV\u7f16\u7801\u5fd8\u8bb0
p1430
F73.744878957169462
sV\u8bf7\u95ee\u662f
p1431
F73.744878957169462
sV\u4e0d\u4e86\u6253\u4e0d\u5f00
p1432
F214.00558659217876
sV\u5230\u4e86
p1433
F73.744878957169462
sV\u5bf9\u4e86\u5947\u602a
p1434
F214.00558659217876
sV\u4e70\u4e0d\u5230\u5230\u5e95
p1435
F214.00558659217876
sV\u7f16\u7801\u662f
p1436
F73.744878957169462
sV\u8bf7\u66f4\u65b0\u5feb
p1437
F214.00558659217876
sV\u8f6f\u4ef6\u8bbe\u7f6e
p1438
F214.00558659217876
sV\u53ef\u4ee5\u6dfb\u52a0
p1439
F73.744878957169462
sV\u6536\u6211
p1440
F214.00558659217876
sV\u64cd\u4f5c\u8d77\u6765
p1441
F214.00558659217876
sV\u53c2\u52a0\u7684
p1442
F73.744878957169462
sV\u600e\u4e48\u67e5\u4e0d\u5230
p1443
F73.744878957169462
sV\u662f\u65b0\u80a1\u7533\u8d2d
p1444
F73.744878957169462
sV\u5f00\u901a\u4e0d\u5230
p1445
F73.744878957169462
sV\u80fd\u5426\u50cf
p1446
F73.744878957169462
sV\u67e5\u8be2\u5f00\u6237
p1447
F73.744878957169462
sV\u5230\u73b0\u5728
p1448
F428.80970149253733
sV\u8981\u4e0d
p1449
F214.00558659217876
sV\u52a8\u8bf7
p1450
F73.744878957169462
sV\u4e0d\u662f\u7edf\u4e00
p1451
F214.00558659217876
sV\u8bf7\u589e\u52a0
p1452
F73.744878957169462
sV\u624d\u80fd\u77e5\u9053
p1453
F73.744878957169462
sV\u5230\u4ece
p1454
F73.744878957169462
sV\u8fd9\u91cc\u6709
p1455
F214.00558659217876
sV\u8fdb\u5165\u7533\u8d2d
p1456
F214.00558659217876
sV\u627e\u4e00\u4e0b
p1457
F73.744878957169462
sV\u6211\u7533\u8d2d
p1458
F214.00558659217876
sV\u8d26\u6237\u5fd8\u8bb0
p1459
F73.744878957169462
sV\u7206\u813e\u6c14
p1460
F214.00558659217876
sV\u624b\u673a\u53f7\u9a8c\u8bc1
p1461
F73.744878957169462
sV\u600e\u4e48\u67e5
p1462
F222.06168224299066
sV\u6709\u95ee\u5fc5\u7b54\u6ca1\u6709
p1463
F73.744878957169462
sV\u8bf7\u63d0\u4f9b
p1464
F73.744878957169462
sV\u6709\u7a7a\u600e\u4e48
p1465
F73.744878957169462
sV\u53d1\u767b\u5f55
p1466
F73.744878957169462
sV\u914d\u552e\u6caa\u5e02
p1467
F73.744878957169462
sV\u5fd8\u8bb0\u8d26\u6237
p1468
F73.744878957169462
sV\u8f6c\u5165\u8bc1\u5238
p1469
F73.744878957169462
sV\u94f6\u8bc1\u8f6c\u5e10
p1470
F18.28358208955224
sV\u5931\u8d25\u9519\u8bef\u7801
p1471
F73.744878957169462
sV\u77e5\u9053\u5728
p1472
F73.744878957169462
sV\u777f\u7ec4\u5408
p1473
F73.744878957169462
sV\u80fd\u67e5\u6e05
p1474
F73.744878957169462
sV\u6709\u65b0\u80a1
p1475
F214.00558659217876
sV\u6570\u636e\u4e0b\u8f7d
p1476
F214.00558659217876
sV\u6dfb\u52a0\u94f6\u884c\u5361
p1477
F73.744878957169462
sV\u90fd\u4f1a
p1478
F644.41682242990657
sV\u53ef\u4ee5\u67e5\u8be2
p1479
F73.744878957169462
sV\u7684\u67e5\u770b
p1480
F73.744878957169462
sV\u9700\u8981\u6295\u653e
p1481
F73.744878957169462
sV\u6ce8\u518c\u5e7f\u53d1
p1482
F147.76492537313433
sV\u4e0d\u80fd\u8d70
p1483
F214.00558659217876
sV\u65e0\u6548\u4e0d\u77e5
p1484
F73.744878957169462
sV\u53ef\u501f\u9274
p1485
F73.744878957169462
sV\u731c\u5bf9\u4e86
p1486
F644.41682242990657
sV\u8bf7\u544a\u8bc9
p1487
F73.744878957169462
sV\u4e0d\u4e86\u600e\u4e48
p1488
F147.76492537313433
sV\u8f6f\u4ef6\u653e\u5927
p1489
F214.00558659217876
sV\u9001\u6211
p1490
F73.744878957169462
sV\u624b\u7eed\u8d39\u7387
p1491
F214.00558659217876
sV\u8f6c\u53d1\u9519\u8bef
p1492
F73.744878957169462
sV\u8d2d\u4e70\u521b\u4e1a\u677f
p1493
F73.744878957169462
sV\u4fe1\u606f\u53d1\u51fa
p1494
F214.00558659217876
sV\u4f1a\u662f
p1495
F214.00558659217876
sV\u7ed1\u5b9a\u94f6\u884c\u5361
p1496
F18.28358208955224
sV\u662f\u53d1\u73b0
p1497
F73.744878957169462
sV\u4e0d\u5230\u65b0\u80a1\u7533\u8d2d
p1498
F214.00558659217876
sV\u7533\u8d2d\u51e0\u767e\u6b21
p1499
F214.00558659217876
sV\u4e5f\u6ca1
p1500
F18.28358208955224
sV\u63d0\u95ee\u4ec0\u4e48
p1501
F214.00558659217876
sV\u54ed\u4e86
p1502
F214.00558659217876
sV\u5c01\u95ed\u57fa\u91d1
p1503
F73.744878957169462
sV\u4e0d\u4f1a\u9009\u62e9
p1504
F214.00558659217876
sV\u5408\u4f5c\u5e7f\u53d1
p1505
F73.744878957169462
sV\u6c92\u65b0\u80a1
p1506
F214.00558659217876
sV\u56de\u8bbf\u7535\u8bdd
p1507
F214.00558659217876
sV\u77ed\u4fe1\u901a\u77e5
p1508
F18.28358208955224
sV\u8bf7\u5e2e\u5fd9
p1509
F73.744878957169462
sV\u90fd\u505a\u4e0d\u4e86
p1510
F214.00558659217876
sV\u4e70\u5356\u548c
p1511
F73.744878957169462
sV\u5230\u94f6\u884c\u5361
p1512
F73.744878957169462
sV\u5ba2\u6237\u7ecf\u7406\u56de\u8bbf
p1513
F214.00558659217876
sV\u8981\u56de\u5230
p1514
F73.744878957169462
sV\u5b9e\u76d8\u5c55\u793a
p1515
F73.744878957169462
sV\u548c\u6392\u540d
p1516
F214.00558659217876
sV\u8fd8\u6709\u5ef6\u65f6
p1517
F214.00558659217876
sV\u4e0d\u5e2e\u52a9
p1518
F214.00558659217876
sV\u4ece\u76f8\u518c
p1519
F214.00558659217876
sV\u4e2d\u7b7e
p1520
F2.4619136960600376
sV\u5df2\u7ecf\u64cd\u4f5c
p1521
F73.744878957169462
sV\u53cd\u6620\u73b0\u7528
p1522
F214.00558659217876
sV\u671b\u7ed9
p1523
F214.00558659217876
sV\u6d88\u8d39\u80a1\u884c
p1524
F73.744878957169462
sV\u8fd9\u7206
p1525
F214.00558659217876
sV\u53ea\u80fd\u66f4\u6362
p1526
F214.00558659217876
sV\u64c5\u81ea\u64cd\u7eb5
p1527
F214.00558659217876
sV\u91cc\u9762\u663e\u793a
p1528
F73.744878957169462
sV\u957f\u65f6\u95f4\u4e0d\u7528
p1529
F73.744878957169462
sV\u4f59\u989d\u67e5
p1530
F73.744878957169462
sV\u5728\u67e5\u627e
p1531
F73.744878957169462
sV\u81ea\u5df1\u8bbe\u5b9a
p1532
F214.00558659217876
sV\u80fd\u7ed9
p1533
F73.744878957169462
sV\u662f\u7ea2
p1534
F73.744878957169462
sV\u8d70\u52bf\u56fe\u51fa\u9519
p1535
F214.00558659217876
sV\u4e2a\u7f29\u653e
p1536
F214.00558659217876
sV\u63d0\u793a\u770b\u7740
p1537
F214.00558659217876
sV\u7a81\u7136\u53d8\u6210
p1538
F73.744878957169462
sV\u6bcf\u6b21\u8fdb\u53bb
p1539
F214.00558659217876
sV\u6ca1\u9519\u7528
p1540
F73.744878957169462
sV\u4e4b\u524d\u6ce8\u518c
p1541
F73.744878957169462
sV\u62cd\u8eab\u4efd\u8bc1
p1542
F214.00558659217876
sV\u4f60\u597d\u60f3
p1543
F73.744878957169462
sV\u4e00\u5b9a\u4e0d\u4f1a
p1544
F214.00558659217876
sV\u80fd\u5e2e
p1545
F73.744878957169462
sV\u662f\u663e\u793a
p1546
F18.28358208955224
sV\u554a\u80fd
p1547
F73.744878957169462
sV\u73a9\u731c
p1548
F214.00558659217876
sV\u6210\u529f\u663e\u793a
p1549
F73.744878957169462
sV\u7f3a\u4e86
p1550
F214.00558659217876
sV\u63d0\u4ea4\u8fd1
p1551
F73.744878957169462
sV\u6ca1\u5904\u7406
p1552
F214.00558659217876
sV\u67e5\u8be2\u4e5f
p1553
F214.00558659217876
sV\u7ed1\u5b9a\u7684
p1554
F147.76492537313433
sV\u5efa\u8bae\u589e\u52a0
p1555
F147.76492537313433
sV\u4e0d\u5230\u4e86
p1556
F222.06168224299066
sV\u6321\u4f4f\u4e86
p1557
F214.00558659217876
sV\u90fd\u4e70
p1558
F73.744878957169462
sV\u89e3\u51b3\u554a
p1559
F73.744878957169462
sV\u4e0d\u8d1f\u8d23
p1560
F214.00558659217876
sV\u4e0d\u8981\u63a8\u9001
p1561
F214.00558659217876
sV\u53ea\u60f3
p1562
F73.744878957169462
sV\u4e70\u4e0d\u5230\u540e\u6765
p1563
F214.00558659217876
sV\u8981\u8f93
p1564
F214.00558659217876
sV\u770b\u4e0d\u6e05\u6bd4
p1565
F214.00558659217876
sV\u6211\u7b7e\u5230
p1566
F73.744878957169462
sV\u6709\u6d88\u606f
p1567
F214.00558659217876
sV\u64cd\u4f5c\u5feb
p1568
F214.00558659217876
sV\u5f00\u901a\u5417
p1569
F73.744878957169462
sV\u5904\u7406\u597d
p1570
F73.744878957169462
sV\u8fdb\u53bb\u6709\u65f6\u5019
p1571
F214.00558659217876
sV\u53ef\u4ee5\u63d0\u4f9b
p1572
F73.744878957169462
sV\u600e\u4e48\u5f00\u901a
p1573
F73.744878957169462
sV\u65b0\u80a1\u901a\u77e5
p1574
F73.744878957169462
sV\u6362\u621018382373817
p1575
F73.744878957169462
sV\u6ca1\u6709\u663e\u793a
p1576
F73.744878957169462
sV\u4e5f\u4e0d\u60f3
p1577
F428.80970149253733
sV\u5356\u4e86
p1578
F214.00558659217876
sV\u53f7\u662f
p1579
F73.744878957169462
sV\u5f71\u54cd\u5fc3\u60c5
p1580
F214.00558659217876
sV\u4e0d\u53ef\u5217
p1581
F73.744878957169462
sV\u6563\u6237\u7b49\u5230
p1582
F214.00558659217876
sV\u4e5f\u4e0d\u80fd
p1583
F73.744878957169462
sV\u63ed\u793a\u4e66
p1584
F214.00558659217876
sV\u6536\u76ca\u8ba1\u7b97
p1585
F73.744878957169462
sV\u662f\u6570\u636e
p1586
F214.00558659217876
sV\u4f18\u5316\u7684
p1587
F73.744878957169462
sV\u51fa\u6765\u663e\u6446
p1588
F214.00558659217876
sV\u6362\u4e00\u4e2a
p1589
F73.744878957169462
sV\u540e\u5173\u95ed
p1590
F73.744878957169462
sV\u7533\u8d2d\u8bf7
p1591
F73.744878957169462
sV\u65e0\u6cd5\u7533\u8d2d
p1592
F73.744878957169462
sV\u586b\u5199\u5bc6\u7801
p1593
F214.00558659217876
sV\u5230\u6211\u5df1
p1594
F73.744878957169462
sV\u64cd\u4f5c\u8981
p1595
F73.744878957169462
sV\u800d\u61d2
p1596
F214.00558659217876
sV\u5462\u4e0d\u80fd
p1597
F73.744878957169462
sV\u63d0\u9192\u8f93\u9519
p1598
F73.744878957169462
sV\u77ed\u4fe1\u8bf4
p1599
F18.28358208955224
sV\u770b\u76d8\u6307\u6807
p1600
F73.744878957169462
sV\u4f60\u4eec\u770b\u7740
p1601
F214.00558659217876
sV\u80fd\u5426\u52a0
p1602
F73.744878957169462
sV\u80fd\u52a0\u5165
p1603
F73.744878957169462
sV\u8bb0\u4e0d\u5f97\u5ba2\u6237
p1604
F73.744878957169462
sV\u5f00\u901a\u521b\u4e1a\u677f
p1605
F296.63670411985021
sV\u65e0\u6cd5\u77e5\u9053
p1606
F73.744878957169462
sV\u8001\u51fa\u73b0
p1607
F428.80970149253733
sV\u7f51\u4e0a\u4e0b\u8f7d
p1608
F73.744878957169462
sV\u767b\u5f55\u8bf4
p1609
F73.744878957169462
sV\u8981\u54a8\u8be2
p1610
F73.744878957169462
sV\u914d\u552e\u4e3a\u4ec0\u4e48
p1611
F73.744878957169462
sV\u5982\u4f55\u8865\u8bf7
p1612
F214.00558659217876
sV\u6709\u65b0
p1613
F73.744878957169462
sV\u751f\u65e5\u9001
p1614
F147.76492537313433
sV\u6253\u5f00\u4e86
p1615
F214.00558659217876
sV\u9001\u8f6c\u80a1
p1616
F214.00558659217876
sV\u65b0\u6362
p1617
F147.76492537313433
sV\u7ea2\u5229\u8865\u7f34
p1618
F73.744878957169462
sV\u80fd\u505a
p1619
F73.744878957169462
sV\u6253\u4e0d\u5f00\u8ba9
p1620
F214.00558659217876
sV\u660e\u660e\u731c\u6da8
p1621
F214.00558659217876
sV\u6211\u4e70
p1622
F296.63670411985021
sV\u5e02\u503c\u8d85\u8fc7
p1623
F73.744878957169462
sV\u5e0c\u671b\u80fd
p1624
F222.06168224299066
sV\u8bb0\u5f55\u6ca1\u6709
p1625
F214.00558659217876
sV\u4e8c\u662f
p1626
F73.744878957169462
sV\u8d54\u507f\u5427
p1627
F214.00558659217876
sV\u767b\u5f55\u5ba2\u6237
p1628
F73.744878957169462
sV\u67e5\u770b\u8d26\u6237
p1629
F73.744878957169462
sV\u5dee\u4e0d\u5230
p1630
F428.80970149253733
sV\u8d26\u6237\u6709\u94b1
p1631
F73.744878957169462
sV\u5fd8\u8bb0\u7528\u6237\u540d
p1632
F73.744878957169462
sV\u4e0d\u662f\u8bf4
p1633
F214.00558659217876
sV\u7387\u4f60\u4eec
p1634
F214.00558659217876
sV\u4e86\u5e0c\u671b
p1635
F147.76492537313433
sV\u5f00\u6237\u5fd8\u8bb0
p1636
F73.744878957169462
sV\u4eba\u56de\u5e94
p1637
F214.00558659217876
sV\u6709\u8fd9\u4e48
p1638
F214.00558659217876
sV\u8d70\u600e\u4e48
p1639
F214.00558659217876
sV\u529f\u80fd\u6bd4\u5982
p1640
F73.744878957169462
sV\u603b\u662f\u63d0\u793a
p1641
F214.00558659217876
sV\u6211\u79d1\u590d
p1642
F73.744878957169462
sV\u6ca1\u6709\u4e2d\u5956
p1643
F73.744878957169462
sV\u4e0d\u89c1\u65e9\u77e5
p1644
F214.00558659217876
sV\u76d1\u63a7\u554a
p1645
F214.00558659217876
sV\u662f\u4e0d\u662f\u6709
p1646
F214.00558659217876
sV\u627e\u56de\u5e7f\u53d1
p1647
F73.744878957169462
sV\u4e86\u731c
p1648
F214.00558659217876
sV\u4e70\u5356\u7684
p1649
F73.744878957169462
sV\u65e5\u8d77
p1650
F214.00558659217876
sV\u5feb\u6539\u5584
p1651
F214.00558659217876
sV\u7834\u7cfb\u7edf
p1652
F428.80970149253733
sV\u54ea\u91cc\u4e0b\u8f7d
p1653
F147.76492537313433
sV\u81ea\u52a8\u79bb\u5f00
p1654
F214.00558659217876
sV\u7535\u8bdd\u56de\u8bbf
p1655
F214.00558659217876
sV\u7edf\u8ba1MAC
p1656
F214.00558659217876
sV\u51fa\u6765\u8fd9
p1657
F73.744878957169462
sV\u6da8\u901f\u6392\u884c
p1658
F73.744878957169462
sV\u79fb\u4e0d
p1659
F428.80970149253733
sV\u4e3a\u4f55\u4e70
p1660
F214.00558659217876
sV\u4e0d\u884c\u4e86
p1661
F73.744878957169462
sV\u591a\u5c11\u671b
p1662
F73.744878957169462
sV\u5f00\u901a\u7684
p1663
F73.744878957169462
sV\u6346\u7ed1\u591a
p1664
F73.744878957169462
sV\u7ecf\u5e38\u51fa\u9519
p1665
F214.00558659217876
sV\u5bc6\u7801\u53d6\u56de
p1666
F73.744878957169462
sV\u4e0d\u60f3\u5b66
p1667
F214.00558659217876
sV\u6bcf\u6b21\u8fdb\u5165
p1668
F214.00558659217876
sV\u5230\u4e2d\u9014
p1669
F214.00558659217876
sV\u6211\u8f93
p1670
F214.00558659217876
sV\u79bb\u804c\u7684
p1671
F214.00558659217876
sV\u56de\u8bbf\u4e5f
p1672
F214.00558659217876
sV\u5417\u60f3
p1673
F73.744878957169462
sV\u4e70\u80a1\u7968
p1674
F214.00558659217876
sV\u5904\u7406\u592a\u6162
p1675
F214.00558659217876
sV\u627e\u4e86
p1676
F214.00558659217876
sV\u4e0d\u5230\u914d\u53f7
p1677
F73.744878957169462
sV\u7ebf\u79fb
p1678
F214.00558659217876
sV\u4ee4\u4eba\u5931\u671b
p1679
F214.00558659217876
sV\u4e70\u521b\u4e1a\u677f
p1680
F73.744878957169462
sV\u53d1\u51fa\u5206\u949f
p1681
F214.00558659217876
sV\u6392\u5217\u6b21\u5e8f
p1682
F214.00558659217876
sV\u505a\u597d\u8f6f\u4ef6
p1683
F214.00558659217876
sV\u5929\u624d\u5ba1\u6838
p1684
F73.744878957169462
sV\u63d0\u9192\u7684
p1685
F73.744878957169462
sV\u8fde\u670d\u52a1
p1686
F214.00558659217876
sV\u6d88\u606f\u63d0\u793a
p1687
F214.00558659217876
sV\u600e\u4e48\u8d54\u507f
p1688
F214.00558659217876
sV\u6ca1\u6709\u81ea\u9009
p1689
F214.00558659217876
sV\u8f93\u5165\u5bc6\u7801
p1690
F18.28358208955224
sV\u6536\u591a\u5c11
p1691
F73.744878957169462
sV\u4e0d\u80fd\u4e70
p1692
F73.744878957169462
sV\u600e\u4e48\u6837\u624d\u80fd
p1693
F147.76492537313433
sV\u4e0d\u80fd\u4e0e
p1694
F214.00558659217876
sV\u5206\u949f\u6ca1
p1695
F214.00558659217876
sV\u5982\u4f55\u8fdb\u5165
p1696
F147.76492537313433
sV\u4e0b\u8f7d\u5ba2\u6237\u7aef
p1697
F73.744878957169462
sV\u663e\u793a\u9875\u9762
p1698
F428.80970149253733
sV\u8f6c\u94f6\u884c
p1699
F2.1688473520249221
sV\u4e0d\u4e86\u5173\u6ce8
p1700
F73.744878957169462
sV\u7acb\u5373\u66f4\u6362
p1701
F214.00558659217876
sV\u94b1\u5230
p1702
F73.744878957169462
sV\u5982\u4f55\u4e0b\u8f7d
p1703
F73.744878957169462
sV\u53d8\u66f4\u4e86
p1704
F73.744878957169462
sV\u4e0a\u8d2d\u4e70
p1705
F73.744878957169462
sV\u81ea\u9009\u6dfb\u52a0
p1706
F214.00558659217876
sV\u6211\u60f3
p1707
F196.67070217917674
sV\u5151\u6362\u4eac\u4e1c
p1708
F73.744878957169462
sV\u662f\u90a3\u91cc
p1709
F73.744878957169462
sV\u5230\u8bc1\u5238
p1710
F73.744878957169462
sV\u4e0d\u5230\u6211
p1711
F73.744878957169462
sV\u6211\u80fd
p1712
F73.744878957169462
sV\u5c31\u8981\u54ed
p1713
F214.00558659217876
sV\u624b\u673a\u770b
p1714
F73.744878957169462
sV\u4e0d\u5230\u8fd8\u6709
p1715
F73.744878957169462
sV\u56de\u5e94\u4e0d\u662f
p1716
F214.00558659217876
sV\u95f4\u80fd
p1717
F214.00558659217876
sV\u6d41\u51fa\u548c
p1718
F214.00558659217876
sVMAC\u4e0a\u7528
p1719
F214.00558659217876
sV\u4eca\u5929\u5f00\u5e02
p1720
F214.00558659217876
sV\u600e\u4e48\u770b
p1721
F147.76492537313433
sV\u6362\u6389\u4f60\u4eec
p1722
F214.00558659217876
sV\u627e\u56de\u8d26\u53f7\u5bc6\u7801
p1723
F73.744878957169462
sV\u4e0d\u80fd\u540c\u65f6
p1724
F73.744878957169462
sV\u67e5\u770b\u4e24\u5929
p1725
F214.00558659217876
sV\u7ed9\u627e
p1726
F73.744878957169462
sV\u51fa\u73b0\u8fd9\u6837
p1727
F214.00558659217876
sV\u81ea\u9009\u6839\u672c
p1728
F214.00558659217876
sV\u8868\u91cc\u5199
p1729
F73.744878957169462
sV\u9001\u4e86
p1730
F73.744878957169462
sV\u624d\u6539\u6210
p1731
F214.00558659217876
sV\u4e0d\u5165\u5462
p1732
F73.744878957169462
sV\u4e0d\u8981\u62ff
p1733
F214.00558659217876
sV\u5b89\u88c5\u5b89\u5168
p1734
F73.744878957169462
sV\u6253\u4e5f
p1735
F214.00558659217876
sV\u4f60\u597d\u6709
p1736
F73.744878957169462
sV\u6708\u6ca1\u6709
p1737
F73.744878957169462
sV\u53f7\u7801\u9a8c\u8bc1
p1738
F73.744878957169462
sV\u663e\u793a\u5468
p1739
F73.744878957169462
sV\u4e70\u6da8\u4e86
p1740
F214.00558659217876
sV\u63d0\u6b3e\u4e0d\u4e86
p1741
F73.744878957169462
sV\u54a8\u8be2\u753b\u9762
p1742
F214.00558659217876
sV\u56de\u7b54\u56de\u590d
p1743
F73.744878957169462
sV\u80fd\u8c03\u6574
p1744
F73.744878957169462
sV30\u4e70
p1745
F214.00558659217876
sV\u8bc1\u5238\u4e0d\u80fd
p1746
F214.00558659217876
sV\u663e\u793a\u548c
p1747
F73.744878957169462
sV\u7684\u8bc4\u6d4b
p1748
F73.744878957169462
sV\u79ef\u5206\u4e70
p1749
F18.28358208955224
sV\u4e0d\u8d70
p1750
F428.80970149253733
sV\u6211\u8981\u6c42
p1751
F428.80970149253733
sV\u65e0\u529b\u5410\u69fd
p1752
F214.00558659217876
sV\u4e0d\u4e86\u65b0\u80a1
p1753
F214.00558659217876
sV\u8fd8\u9700\u8981
p1754
F73.744878957169462
sV\u6ca1\u89e3\u51b3
p1755
F214.00558659217876
sV\u4e5f\u80fd
p1756
F73.744878957169462
sV\u6570\u636e\u4e0d\u51c6
p1757
F214.00558659217876
sV\u662f\u5361
p1758
F214.00558659217876
sV\u6ca1\u6709\u540c\u6b65
p1759
F214.00558659217876
sV\u4e00\u76f4\u6ca1\u6709
p1760
F214.00558659217876
sV\u4e0d\u4f1a\u66f4\u65b0
p1761
F73.744878957169462
sV\u8bf7\u56de\u590d
p1762
F214.00558659217876
sV\u4e3a\u5565\u6263
p1763
F214.00558659217876
sV\u4f1a\u81ea\u52a8
p1764
F73.744878957169462
sV\u9006\u56de\u8d2d
p1765
F147.76492537313433
sV\u5230\u5e95\u8981
p1766
F73.744878957169462
sV\u4e0d\u4e86\u94b1
p1767
F73.744878957169462
sV\u600e\u4e48\u627e\u56de
p1768
F446.6278195488722
sV\u8bf4\u4e0d
p1769
F73.744878957169462
sV\u600e\u4e48\u6837\u53d8\u6210
p1770
F73.744878957169462
sV\u4f60\u4eec\u8ba9
p1771
F214.00558659217876
sV\u5bc6\u7801\u5374\u8bf4
p1772
F214.00558659217876
sV\u7684\u6253
p1773
F214.00558659217876
sV\u8ba2\u4e86
p1774
F147.76492537313433
sV\u76f8\u5173\u8d1f\u8d23\u4eba
p1775
F73.744878957169462
sV\u4e0d\u4e86\u4ec0\u4e48
p1776
F142.95389408099689
sV\u8d77\u6765\u975e\u5e38
p1777
F214.00558659217876
sV\u4e0d\u4e86\u63d0\u793a
p1778
F73.744878957169462
sV\u90fd\u6ca1\u4e2d
p1779
F428.80970149253733
sV\u600e\u4e48\u5bfc\u51fa
p1780
F73.744878957169462
sV\u653e\u5927\u5065
p1781
F428.80970149253733
sV\u4e70\u670d\u52a1
p1782
F214.00558659217876
sV\u5149\u6263
p1783
F214.00558659217876
sV\u5904\u7406\u5462
p1784
F73.744878957169462
sV\u6839\u672c\u4e0d\u4f1a
p1785
F214.00558659217876
sV\u76f8\u518c\u4e2d
p1786
F214.00558659217876
sV\u7f16\u53f7\u8bf7
p1787
F73.744878957169462
sV\u8d77\u6ca1\u6709
p1788
F214.00558659217876
sV\u627e\u56de\u6765
p1789
F446.6278195488722
sV\u80fd\u5426\u7535\u8bdd
p1790
F147.76492537313433
sV\u4e0d\u80fd\u767b\u5f55
p1791
F73.744878957169462
sV\u6709120
p1792
F73.744878957169462
sV\u5173\u6ce8\u7684
p1793
F2.1688473520249221
sV\u8fd9\u4e9b\u67e5\u8be2
p1794
F73.744878957169462
sV\u4fdd\u7559\u6536\u76ca
p1795
F73.744878957169462
sV\u5230\u81ea\u5df1
p1796
F73.744878957169462
sV\u67e5\u770b\u5230
p1797
F73.744878957169462
sV\u8c03\u4f4e\u4e00\u4e9b
p1798
F214.00558659217876
sV\u8bf7\u95ee\u65b0\u80a1\u7533\u8d2d
p1799
F73.744878957169462
sV\u4e70\u4e0d\u5165
p1800
F73.744878957169462
sV\u6073\u8bf7\u6765\u4fe1
p1801
F73.744878957169462
sV\u63d0\u51fa\u591a\u6b21
p1802
F214.00558659217876
sV\u7533\u8d2d\u673a\u4f1a
p1803
F214.00558659217876
sV\u6536\u5230\u77ed\u4fe1
p1804
F214.00558659217876
sV\u5df2\u6ce8\u518c
p1805
F73.744878957169462
sV\u771f\u8ba9
p1806
F214.00558659217876
sV\u591a\u6dfb
p1807
F214.00558659217876
sV\u64cd\u4f5c\u63d0\u4ea4
p1808
F73.744878957169462
sV\u5956\u52b1\u6211
p1809
F214.00558659217876
sV\u80a1\u7968\u4e70
p1810
F147.76492537313433
sV\u65f6\u5019\u6765
p1811
F214.00558659217876
sV\u5931\u671b\u4e86
p1812
F214.00558659217876
sV\u7ec4\u5408\u6570\u636e
p1813
F18.28358208955224
sV\u8d1f\u8d23\u4eba\u5ba1\u6279
p1814
F73.744878957169462
sV\u81f3\u5f3a\u7248
p1815
F73.744878957169462
sV\u672a\u5f00\u901a
p1816
F73.744878957169462
sV\u505a\u4e0d\u4e86\u600e\u4e48
p1817
F214.00558659217876
sV\u6ce8\u518c\u65f6
p1818
F214.00558659217876
sV\u663e\u793a\u7cfb\u7edf
p1819
F214.00558659217876
sV\u6ca1\u4e70\u5356
p1820
F73.744878957169462
sV\u7f51\u9875\u6ca1
p1821
F73.744878957169462
sV\u4e70\u5165\u4e0d\u4e86
p1822
F73.744878957169462
sV\u8bbe\u7f6e\u5f88
p1823
F214.00558659217876
sV\u4ea4\u6613\u8d39
p1824
F214.00558659217876
sV\u662f\u4e0d\u662f\u8981
p1825
F73.744878957169462
sV\u8fd8\u5012
p1826
F214.00558659217876
sV\u4f60\u4eec\u77e5\u9053
p1827
F214.00558659217876
sV\u60f3\u518d
p1828
F73.744878957169462
sV\u589e\u52a0\u65b0\u7586
p1829
F73.744878957169462
sV\u662f\u4e0d
p1830
F73.744878957169462
sV\u5ba2\u6237\u7aef\u6539
p1831
F214.00558659217876
sV\u767b\u5f55\u8d26\u53f7
p1832
F73.744878957169462
sV\u77e5\u9053\u662f\u5426
p1833
F18.28358208955224
sV\u8f6c\u8bc1\u5238
p1834
F18.28358208955224
sV\u63d0\u793a\u600e\u4e48
p1835
F73.744878957169462
sV\u529f\u80fd\u4e0d\u80fd
p1836
F214.00558659217876
sV\u770b\u4e0d\u4e86
p1837
F2.1688473520249221
sV\u662f\u4e07\u5206\u4e4b
p1838
F428.80970149253733
sV\u6ca1\u65f6\u95f4
p1839
F214.00558659217876
sV\u5e0c\u671b\u589e\u52a0
p1840
F73.744878957169462
sV\u662f\u4e07\u4e09
p1841
F214.00558659217876
sV\u4e70\u7684
p1842
F147.76492537313433
sV\u662f\u6536
p1843
F73.744878957169462
sV\u4e70\u4e00\u4e2a
p1844
F73.744878957169462
sV\u7533\u8bf7\u964d\u4f4e
p1845
F428.80970149253733
sV\u6362\u5440
p1846
F214.00558659217876
sV\u770b\u7684
p1847
F73.744878957169462
sV\u4e5f\u4e0d\u4f1a
p1848
F214.00558659217876
sV\u7b2c\u4e00\u6b21\u73a9
p1849
F73.744878957169462
sV\u52a0\u5165\u6da8\u901f
p1850
F73.744878957169462
sV\u8d44\u91d1\u76d1\u63a7
p1851
F214.00558659217876
sV\u7f16\u53f7\u662f
p1852
F222.06168224299066
sV\u67e5\u8be2\u6211
p1853
F73.744878957169462
sV\u600e\u4e48\u624d\u80fd
p1854
F147.76492537313433
sV\u90fd\u5f00\u901a
p1855
F73.744878957169462
sV\u8f6c\u4e0d\u8fdb\u8bc1\u5238
p1856
F214.00558659217876
sV\u53bb\u5176\u4ed6
p1857
F214.00558659217876
sV\u770b\u884c\u60c5
p1858
F73.744878957169462
sV\u63d0\u4ea4\u5931\u8d25
p1859
F214.00558659217876
sV\u964d\u4f4e\u624b\u7eed\u8d39
p1860
F214.00558659217876
sV\u9886\u53d6\u5440
p1861
F73.744878957169462
sV\u731c\u8dcc\u4e00\u5343\u5206
p1862
F214.00558659217876
sV\u6253\u4e0d\u5f00\u4e0b\u8f7d\u9875
p1863
F214.00558659217876
sV\u5566\u5e94\u8be5
p1864
F73.744878957169462
sV\u901a\u8fc7\u4e0a\u4f20
p1865
F214.00558659217876
sV\u624b\u673a\u53f7\u662f
p1866
F73.744878957169462
sV\u5f00\u8fc7\u6237
p1867
F73.744878957169462
sV\u670d\u52a1\u7535\u8bdd
p1868
F214.00558659217876
sV\u5fd8\u8bb0\u4e86
p1869
F2256.2455795677802
sV\u5927\u76d8\u662f\u8dcc
p1870
F214.00558659217876
sV\u6bb5\u65f6\u95f4\u6ca1
p1871
F147.76492537313433
sV\u53d8\u6210\u7eff
p1872
F73.744878957169462
sV\u4e0d\u80fd\u505a\u5f97\u597d
p1873
F214.00558659217876
sV\u6211\u627e\u56de
p1874
F73.744878957169462
sV\u8fdb\u5165\u5e7f\u53d1
p1875
F73.744878957169462
sV\u4e86\u5e2e
p1876
F73.744878957169462
sV\u63a7\u4ef6\u5b89\u88c5
p1877
F73.744878957169462
sV\u79ef\u5206\u6ca1
p1878
F214.00558659217876
sV\u662f\u9189
p1879
F428.80970149253733
sV\u4e0d\u7406\u4e00\u4e2a
p1880
F214.00558659217876
sV\u63d0\u793a\u5b89\u88c5
p1881
F73.744878957169462
sV\u63d0\u793a\u4e3a\u5565
p1882
F214.00558659217876
sV\u903c\u5168\u4e16\u754c
p1883
F214.00558659217876
sV\u6709\u4ec0\u4e48
p1884
F18.28358208955224
sV\u53ef\u4e0d\u53ef\u4ee5\u66f4\u6539
p1885
F73.744878957169462
sV\u4e86\u4e0b\u6ce8
p1886
F214.00558659217876
sV\u6dfb\u52a0\u6307\u7eb9
p1887
F73.744878957169462
sV\u4e5f\u5931\u8d25
p1888
F214.00558659217876
sV\u7533\u8d2d\u4ecb\u9762
p1889
F214.00558659217876
sV\u4e0d\u77e5\u4e3a\u4f55
p1890
F73.744878957169462
sV\u662f\u5751\u4eba
p1891
F214.00558659217876
sV\u52a8\u6001\u53ef\u5426
p1892
F214.00558659217876
sV\u7167\u7247\u4e0a\u4f20
p1893
F214.00558659217876
sV\u6f0f\u5417
p1894
F73.744878957169462
sV\u9700\u7ef4\u62a4
p1895
F214.00558659217876
sV\u662f12.38
p1896
F73.744878957169462
sV\u53d6\u6d88\u4e0d\u597d
p1897
F214.00558659217876
sV\u6bcf\u7b14\u6536\u53d6
p1898
F73.744878957169462
sV\u663e\u793a\u7684
p1899
F18.28358208955224
sV\u6709\u7b2c\u4e8c\u4e2a
p1900
F214.00558659217876
sV\u4f1a\u66f4\u65b0
p1901
F214.00558659217876
sV\u544a\u77e5\u76fc\u76fc
p1902
F73.744878957169462
sV\u4e5f\u62ff
p1903
F214.00558659217876
sV\u5b8c\u5584\u65b9\u4fbf
p1904
F73.744878957169462
sV\u6ca1\u4eba
p1905
F214.00558659217876
sV\u767b\u5f55\u6709
p1906
F214.00558659217876
sV\u4e0d\u7528\u4e86
p1907
F73.744878957169462
sV\u5b89\u88c5\u65f6
p1908
F73.744878957169462
sV\u89e3\u7ed1\u600e\u4e48\u529e
p1909
F73.744878957169462
sV\u600e\u641e
p1910
F214.00558659217876
sV\u7d2f\u79ef\u4e8f\u76c8
p1911
F73.744878957169462
sV\u53ef\u5426\u51fa
p1912
F214.00558659217876
sV\u6b22\u4e50\u731c
p1913
F73.744878957169462
sV\u63d0\u9192\u5ba2\u6237
p1914
F214.00558659217876
sV\u67e5\u770b\u529f\u80fd
p1915
F73.744878957169462
sV\u70b9\u51fb\u54ea\u91cc
p1916
F73.744878957169462
sV\u6d3b\u52a8\u7cfb\u7edf
p1917
F214.00558659217876
sV\u5e74\u6c92
p1918
F214.00558659217876
sV\u64cd\u4f5c\u90fd
p1919
F214.00558659217876
sV\u67e5\u770b\u4ecd\u7136
p1920
F73.744878957169462
sV\u51fa\u5f71\u54cd
p1921
F214.00558659217876
sV\u5bc6\u7801\u6ca1\u9519
p1922
F73.744878957169462
sV\u4e0d\u77e5\u9053
p1923
F284.34056603773587
sV\u521a\u521a\u7ed1\u5b9a
p1924
F73.744878957169462
sV\u80fd\u5426\u5e2e
p1925
F73.744878957169462
sV\u6ca1\u6709\u5de5\u5177
p1926
F73.744878957169462
sV\u5728\u70b9\u51fb
p1927
F73.744878957169462
sV\u600e\u4e48\u5904\u7406
p1928
F222.06168224299066
sV\u8c03\u6574\u6211
p1929
F428.80970149253733
sV\u8bf7\u56de\u7b54
p1930
F73.744878957169462
sV\u6ca1\u4e86
p1931
F73.744878957169462
sV\u66f4\u6539\u7528\u6237\u540d
p1932
F73.744878957169462
sV\u600e\u4e48\u67e5\u8be2
p1933
F73.744878957169462
sV\u6ca1\u6709\u79ef\u5206
p1934
F214.00558659217876
sV\u4e0d\u663e\u793a
p1935
F18.28358208955224
sV\u5e94\u8be54000
p1936
F73.744878957169462
sV\u662f\u53cd
p1937
F214.00558659217876
sV\u4f63\u91d1\u80fd
p1938
F214.00558659217876
sV\u63a5\u5230\u5176\u5b83
p1939
F214.00558659217876
sV\u590d\u539f\u6765
p1940
F73.744878957169462
sV\u600e\u6837\u53d6\u6d88
p1941
F73.744878957169462
sV\u8d44\u6599\u662f
p1942
F73.744878957169462
sV\u7684\u8bf4\u597d
p1943
F214.00558659217876
sV\u6709\u6295\u987e
p1944
F214.00558659217876
sV\u5e2e\u6211
p1945
F329.7645452636001
sV\u52a0\u8f7d\u51fa\u9519
p1946
F214.00558659217876
sV\u6211\u9700\u8981
p1947
F73.744878957169462
sV\u5fc5\u7b54\u91cc
p1948
F214.00558659217876
sV\u770b\u5440
p1949
F73.744878957169462
sV\u8865\u7f34\u8d39\u7528
p1950
F73.744878957169462
sV\u8865\u4e70\u70b9
p1951
F73.744878957169462
sV\u770b\u4e0d\u5230\u4e70
p1952
F214.00558659217876
sV\u5e7f\u544a\u90e8\u6709
p1953
F73.744878957169462
sV\u8425\u4e1a\u5385\u6ca1
p1954
F214.00558659217876
sV\u4e3a\u4ec0\u4e48\u6ca1\u6709
p1955
F214.00558659217876
sV\u65e0\u957f\u671f
p1956
F214.00558659217876
sV\u4e0d\u80fd\u628a
p1957
F214.00558659217876
sV\u5bb3\u6015\u88ab
p1958
F73.744878957169462
sV\u4f5c\u5e9f\u662f
p1959
F73.744878957169462
sV\u901a\u77e5\u6211
p1960
F222.06168224299066
sV\u8981\u62a5\u8b66
p1961
F214.00558659217876
sV\u8d28\u7591\u662f\u5426
p1962
F214.00558659217876
sV\u64cd\u4f5c\u521a\u521a
p1963
F73.744878957169462
sV\u9ed8\u8ba4\u56fa\u5b9a
p1964
F214.00558659217876
sV\u5e2e\u52a9\u89e3\u51b3\u95ee\u9898
p1965
F214.00558659217876
sV\u6211\u8d2d\u4e70
p1966
F147.76492537313433
sV\u8bf7\u8054\u7cfb
p1967
F73.744878957169462
sV\u540c\u610f\u5e2e
p1968
F214.00558659217876
sV\u5012\u4e8f\u4e86
p1969
F214.00558659217876
sV\u505c\u6b62\u66f4\u65b0
p1970
F73.744878957169462
sV\u4e92\u52a8\u6c9f\u901a
p1971
F73.744878957169462
sV00\u4e70
p1972
F214.00558659217876
sV\u8fd8\u8981\u8d2d\u4e70
p1973
F73.744878957169462
sV\u6d4b\u8bd5\u4e00\u4e0b
p1974
F73.744878957169462
sV\u4e0d\u80fd\u6253
p1975
F73.744878957169462
sV\u8bf7\u95ee\u8981
p1976
F73.744878957169462
sV\u8d2d\u4e70\u5404\u79cd
p1977
F73.744878957169462
sV\u4e71\u7801\u8bf7\u95ee
p1978
F73.744878957169462
sV\u53d1\u4e86
p1979
F214.00558659217876
sV\u5982\u4f55\u8bbe\u7f6e
p1980
F73.744878957169462
sV18349176618\u6362\u6210
p1981
F73.744878957169462
sV\u8fdb\u5165\u79ef\u5206
p1982
F73.744878957169462
sV\u6765\u4e2a
p1983
F214.00558659217876
sV\u4e86\u5fd8
p1984
F73.744878957169462
sV\u901a\u641e
p1985
F73.744878957169462
sV\u600e\u4e48\u64cd\u4f5c
p1986
F73.744878957169462
sV\u8d23\u4efb\u63a8
p1987
F214.00558659217876
sV\u4e70\u548c
p1988
F73.744878957169462
sV\u90fd\u770b\u4e0d\u5230
p1989
F214.00558659217876
sV\u5931\u8d25\u603b\u662f
p1990
F214.00558659217876
sV\u5bc6\u7801\u5fd8
p1991
F73.744878957169462
sV\u8f6c\u4e0d\u51fa\u8001
p1992
F214.00558659217876
sV\u600e\u4e48\u5f04\u6709
p1993
F73.744878957169462
sV\u6709\u65f6\u5019\u60f3
p1994
F214.00558659217876
sV\u4e0d\u4e0a
p1995
F73.744878957169462
sV\u56de\u674e\u660e
p1996
F73.744878957169462
sV\u4e5f\u770b
p1997
F73.744878957169462
sV\u7ecf\u5e38\u9700
p1998
F214.00558659217876
sV\u8bf7\u95ee\u4e3a\u4ec0\u4e48
p1999
F73.744878957169462
sV\u4f1a\u53d1\u751f
p2000
F214.00558659217876
sV\u4e0d\u5230\u5b89\u5168
p2001
F73.744878957169462
sV\u589e\u52a0\u6b64
p2002
F73.744878957169462
sV\u9002\u5408\u6027
p2003
F214.00558659217876
sV\u7684\u589e\u52a0
p2004
F73.744878957169462
sV\u75af\u72c2\u6389\u7ebf
p2005
F214.00558659217876
sV\u8981\u6b7b\u8d8a
p2006
F214.00558659217876
sV\u5410\u69fd\u4e86
p2007
F214.00558659217876
sV\u8d60\u9001\u7684
p2008
F73.744878957169462
sV\u90fd\u5f04
p2009
F73.744878957169462
sV\u56de\u4e8b\u7ed9
p2010
F214.00558659217876
sV\u53ea\u5f39\u51fa
p2011
F73.744878957169462
sV\u6216\u63d0\u4f9b
p2012
F73.744878957169462
sV\u4ea4\u6613\u51c6\u5907
p2013
F214.00558659217876
sV\u6ca1\u6709\u7ed9\u6211\u53d1
p2014
F73.744878957169462
sV\u6cc4\u9732\u5ba2\u6237
p2015
F214.00558659217876
sV\u6211\u64cd
p2016
F214.00558659217876
sV\u6570\u636e\u662f\u4e71
p2017
F428.80970149253733
sV\u77e5\u9053\u5f88
p2018
F214.00558659217876
sV\u64cd\u4f60
p2019
F214.00558659217876
sV\u4e0a\u4f20\u5f55\u50cf
p2020
F214.00558659217876
sV\u6309\u4e86\u786e\u8ba4
p2021
F73.744878957169462
sV\u63d0\u95ee\u6709
p2022
F73.744878957169462
sV\u79ef\u5206\u8ba1\u7b97
p2023
F214.00558659217876
sV\u95ee\u9898\u6ca1
p2024
F214.00558659217876
sV\u6ca1\u4e2d\u9274
p2025
F214.00558659217876
sV\u63d0\u4f9b\u624b\u673a\u53f7
p2026
F73.744878957169462
sV\u8f6c\u4e00\u4e07\u5143
p2027
F73.744878957169462
sV\u4ea4\u6613\u63d0\u9192
p2028
F73.744878957169462
sV\u5e94\u8be5\u6709\u4e2a
p2029
F73.744878957169462
sV\u767b\u4e0d\u4e0a\u4e86
p2030
F73.744878957169462
sV\u8981\u5f00\u6237
p2031
F73.744878957169462
sV\u6ca1\u6709\u4e0d
p2032
F214.00558659217876
sV\u624b\u673a\u663e\u793a
p2033
F73.744878957169462
sV\u5e94\u8be5\u8bbe\u7f6e
p2034
F73.744878957169462
sV\u6ca1\u66f4\u65b0
p2035
F214.00558659217876
sV\u6ca1\u6709\u5168\u65b9\u4f4d
p2036
F214.00558659217876
sV\u767b\u9646\u4e0d\u4e86
p2037
F18.28358208955224
sV\u8bf424
p2038
F214.00558659217876
sV\u4e70sT
p2039
F73.744878957169462
sV\u9886\u53d6\u8d60\u9001
p2040
F73.744878957169462
sV\u8f6c\u4e0d\u51fa\u6765
p2041
F147.76492537313433
sV\u5206\u6570\u6ca1
p2042
F214.00558659217876
sV\u60a8\u9047\u5230
p2043
F73.744878957169462
sV\u6307\u5f15\u554a
p2044
F73.744878957169462
sV\u7533\u8d2d\u6b7b\u673a
p2045
F214.00558659217876
sV\u5c31\u8fde\u627e
p2046
F214.00558659217876
sV\u5217\u591a
p2047
F73.744878957169462
sV\u5708\u7ec4\u5408
p2048
F214.00558659217876
sV\u7684\u662f
p2049
F2.1688473520249221
sV\u91cd\u65b0\u4e0b\u8f7d
p2050
F214.00558659217876
sV\u8ba9\u6211
p2051
F214.00558659217876
sV\u663e\u793a\u6210\u529f
p2052
F214.00558659217876
sV\u53bb\u8425\u4e1a\u5385
p2053
F18.28358208955224
sV\u8981\u672c\u4eba
p2054
F214.00558659217876
sV\u90fd\u6709
p2055
F428.80970149253733
sV\u5176\u4ed6\u5151\u6362
p2056
F73.744878957169462
sV\u7684\u7ba1\u7406
p2057
F73.744878957169462
sV\u73a9\u8fd8\u662f
p2058
F73.744878957169462
sV\u4e5f\u627e
p2059
F147.76492537313433
sV\u53ea\u4e70
p2060
F73.744878957169462
sV\u6ca1\u6709\u6ce8\u518c
p2061
F214.00558659217876
sV\u8fd8\u6709\u4e00\u5927
p2062
F73.744878957169462
sV\u95ee\u7684
p2063
F73.744878957169462
sV\u7684\u6392\u5217
p2064
F214.00558659217876
sV\u4e0a\u6765\u5fd8\u8bb0
p2065
F73.744878957169462
sV\u98ce\u9669\u63ed\u793a
p2066
F214.00558659217876
sV\u7684\u7f3a\u9677
p2067
F214.00558659217876
sV\u663e\u793a\u5bc6\u7801
p2068
F147.76492537313433
sV\u4e0d\u4e86\u70b9
p2069
F73.744878957169462
sV\u600e\u4e48\u529e\u8bf7
p2070
F73.744878957169462
sV\u7533\u8d2d\u65b0\u80a1
p2071
F134.81704260651628
sV\u662f\u5426\u5b58\u5728
p2072
F214.00558659217876
sV\u901a\u53f7\u7801
p2073
F73.744878957169462
sV\u51fa\u73b0\u7ef4\u62a4
p2074
F214.00558659217876
sV\u5e2e\u5fd9\u53d1
p2075
F73.744878957169462
sV\u63d0\u4f9b\u4e00\u4e2a
p2076
F214.00558659217876
sV\u5bf9\u5916\u6cc4\u9732
p2077
F214.00558659217876
sV\u767b\u9646\u4e0d\u4e0a
p2078
F73.744878957169462
sV\u8981\u5356\u7684
p2079
F214.00558659217876
sV\u6ca1\u6709\u4e86
p2080
F147.76492537313433
sV\u4e0b\u8dcc\u4f46
p2081
F214.00558659217876
sV\u7ecf\u5e38\u51fa
p2082
F214.00558659217876
sV\u5e9f\u5355\u8bf7
p2083
F73.744878957169462
sV\u5c45\u7136\u6263
p2084
F214.00558659217876
sV\u9884\u4f30\u5728
p2085
F214.00558659217876
sV\u5fd8\u8bb0\u4e4b\u524d
p2086
F73.744878957169462
sV\u5220\u6389\u81ea\u5df1
p2087
F73.744878957169462
sV\u9a9a\u6270\u6211
p2088
F214.00558659217876
sV\u770b\u5230\u7535\u8111
p2089
F73.744878957169462
sV\u624b\u673a\u5fd8\u8bb0
p2090
F73.744878957169462
sV\u6709\u6280\u5de7
p2091
F73.744878957169462
sV\u6d4b\u8bc4\u6253\u5206
p2092
F73.744878957169462
sV\u8d70\u70b9\u5fc3
p2093
F214.00558659217876
sV\u5931\u8d25\u6ca1
p2094
F214.00558659217876
sV\u7684\u767b\u9646
p2095
F73.744878957169462
sV\u65f6\u5019\u63d0\u4ea4
p2096
F214.00558659217876
sV\u79ef\u5206\u8ba4
p2097
F214.00558659217876
sV\u5bc6\u7801\u8bb0\u5f97
p2098
F73.744878957169462
sV\u65b0\u80a1\u7533\u8d2d\u662f
p2099
F73.744878957169462
sV\u4e3b\u9875\u641e\u597d
p2100
F214.00558659217876
sV\u7edf\u4e00\u7684
p2101
F214.00558659217876
sV\u600e\u4e48\u4e70\u5165
p2102
F73.744878957169462
sV\u4e0d\u5230\u6613
p2103
F73.744878957169462
sV\u600e\u4e48\u6ca1\u6709
p2104
F522.04708097928437
sV\u5440\u5199
p2105
F214.00558659217876
sV\u7533\u8d2d\u8c22\u8c22
p2106
F147.76492537313433
sV\u5e7f\u53d1\u901a
p2107
F27.034974441754102
sV\u8fd8\u6ca1\u56de
p2108
F73.744878957169462
sV\u663e\u793a\u5e38\u89c4
p2109
F73.744878957169462
sV\u90fd\u770b\u770b
p2110
F214.00558659217876
sV\u7f51\u7edc\u5ef6\u8fdf
p2111
F214.00558659217876
sV\u5927\u76d8\u4e0b\u8dcc
p2112
F428.80970149253733
sV\u540e\u5fd8
p2113
F73.744878957169462
sV\u4e0a\u641c
p2114
F73.744878957169462
sV\u66f4\u6539\u4e00\u4e0b
p2115
F73.744878957169462
sV\u72b6\u6001\u4f5c\u5e9f
p2116
F73.744878957169462
sV\u4e0e\u8d2d
p2117
F73.744878957169462
sV\u85c9\u53e3\u6765
p2118
F214.00558659217876
sV\u8bf7\u95ee\u4f63\u91d1
p2119
F73.744878957169462
sV\u6211\u4e0b\u8f7d
p2120
F73.744878957169462
sV\u53ea\u662f\u63d0\u793a
p2121
F214.00558659217876
sV\u90fd\u662f
p2122
F313.26029962546818
sV\u8bf7\u5c3d\u5feb
p2123
F73.744878957169462
sV\u7f16\u53f7\u627e
p2124
F73.744878957169462
sV\u63a5\u6536\u4e0d\u5230
p2125
F214.00558659217876
sV\u662f\u4f60\u4eec
p2126
F214.00558659217876
sV\u767b\u9646\u4e0d
p2127
F73.744878957169462
sV\u4e5f\u6253\u4e0d\u5f00
p2128
F214.00558659217876
sV\u662f\u9009\u51fa
p2129
F73.744878957169462
sV\u64cd\u4f5c\u80a1\u5e02
p2130
F214.00558659217876
sV\u7f51\u770b
p2131
F73.744878957169462
sV\u770b\u5230\u600e\u4e48
p2132
F73.744878957169462
sV\u662f\u7ecf\u5e38
p2133
F214.00558659217876
sV\u5462\u4f1a
p2134
F73.744878957169462
sV\u4e00\u952e\u7533\u8d2d
p2135
F214.00558659217876
sV\u4f1a\u6f0f
p2136
F73.744878957169462
sV\u624b\u673a\u64cd\u4f5c
p2137
F214.00558659217876
sV\u80fd\u53cd\u6620
p2138
F73.744878957169462
sV\u4fee\u6539\u8054\u7cfb\u65b9\u5f0f
p2139
F73.744878957169462
sV\u5fd8\u8bb0\u5bc6\u7801
p2140
F222.06168224299066
sV\u6700\u65b0\u6301\u80a1
p2141
F214.00558659217876
sV\u901a\u8fc7\u5fae\u4fe1
p2142
F73.744878957169462
sV\u8bf7\u95ee\u73b0\u5728
p2143
F73.744878957169462
sV\u660e\u7ec6\u4e0d\u80fd
p2144
F73.744878957169462
sV\u51fa\u4e00\u4e2a
p2145
F214.00558659217876
sV\u8ba2\u5355\u6ca1\u6709
p2146
F73.744878957169462
sV\u8fd8\u662f\u63d0\u793a
p2147
F73.744878957169462
sV\u6211\u8c03\u6574
p2148
F214.00558659217876
sV\u548c\u5356
p2149
F73.744878957169462
sV\u8d4e\u56de\u4e0d\u4e86
p2150
F73.744878957169462
sV\u6211\u5fd8\u8bb0
p2151
F371.49155722326452
sV\u95ee\u9898\u6253\u76d8
p2152
F214.00558659217876
sV\u6280\u672f\u6307\u6807\u7f3a
p2153
F214.00558659217876
sV\u60f3\u95ee
p2154
F18.28358208955224
sV\u6539\u5584\u5df2\u7ecf
p2155
F214.00558659217876
sV\u8f93\u8d62\u79ef\u5206
p2156
F214.00558659217876
sV\u8d26\u53f7\u767b\u4e0d\u4e0a
p2157
F73.744878957169462
sV\u5982\u4f55\u4f7f\u7528
p2158
F73.744878957169462
sV\u6ca1\u4e2d\u4eba\u5bb6
p2159
F214.00558659217876
sV\u7b49\u5f85\u56de
p2160
F214.00558659217876
sV\u8bbe\u7f6e\u64cd\u4f5c
p2161
F214.00558659217876
sV\u8fd9\u4e48\u5fd9
p2162
F214.00558659217876
sV\u5f88\u4e45\u6ca1\u64cd\u4f5c
p2163
F73.744878957169462
sV\u771f\u5fc3\u5e0c\u671b
p2164
F214.00558659217876
sV\u8bf4\u597d\u6709
p2165
F214.00558659217876
sV\u79ef\u5206\u5bf9\u6362
p2166
F73.744878957169462
sV\u5931\u8d25\u53ea\u662f
p2167
F214.00558659217876
sV\u7684\u5c01\u95ed
p2168
F73.744878957169462
sV\u600e\u4e48\u89e3\u51b3
p2169
F2.1688473520249221
sV\u770b\u4e0d\u5230\u624b\u673a
p2170
F214.00558659217876
sV\u8f93\u624b\u673a\u53f7
p2171
F214.00558659217876
sV\u5347\u4f4d\u624b\u7eed
p2172
F73.744878957169462
sV\u770b\u7740\u96be\u53d7
p2173
F214.00558659217876
sV\u4e0d\u80fd\u63d0\u4f9b
p2174
F214.00558659217876
sV\u90fd\u65e0
p2175
F214.00558659217876
sV\u8e66\u8f93\u5165
p2176
F73.744878957169462
sV\u7b97\u600e\u4e48\u56de\u4e8b
p2177
F214.00558659217876
sV\u5356\u51fa\u540e
p2178
F73.744878957169462
sV\u767b\u5f55\u5e10\u53f7
p2179
F147.76492537313433
sV\u5e94\u8be5\u662f
p2180
F214.00558659217876
sV\u4e2d\u589e\u52a0
p2181
F73.744878957169462
sV\u4e5f\u662f
p2182
F502.30731707317074
sV\u6253\u5f00\u8fd8\u662f
p2183
F73.744878957169462
sV\u8ba1\u5165\u56fd\u503a
p2184
F73.744878957169462
sV\u73b0\u5728\u8fdb\u5165
p2185
F73.744878957169462
sV\u4e70\u503a\u5238
p2186
F73.744878957169462
sV\u7ec4\u5408\u600e\u4e48
p2187
F214.00558659217876
sV\u5728\u7533\u8d2d
p2188
F214.00558659217876
sV\u4f60\u4eec\u8bf4
p2189
F214.00558659217876
sV\u6ca1\u6709\u8fd9\u4e2a
p2190
F73.744878957169462
sV\u80fd\u7528
p2191
F73.744878957169462
sV\u7cfb\u7edf\u63d0\u793a
p2192
F73.744878957169462
sV\u5bc6\u7801\u5e94\u8be5
p2193
F73.744878957169462
sV\u6da8\u8dcc5
p2194
F214.00558659217876
sV\u5356\u4e0d\u6389\u635f\u5931
p2195
F214.00558659217876
sV\u6628\u5929\u53c2\u52a0
p2196
F73.744878957169462
sV\u94f6\u884c\u8f6c\u4e0d
p2197
F73.744878957169462
sV\u9a8c\u8bc1\u6d4b\u8bd5
p2198
F147.76492537313433
sV\u64cd\u4f5c\u548c
p2199
F214.00558659217876
sV\u4e5f\u4e0d\u884c
p2200
F214.00558659217876
sV\u53d1\u77ed\u4fe1\u901a\u77e5
p2201
F73.744878957169462
sV\u516c\u53f8\u8fd8\u6709
p2202
F214.00558659217876
sV\u77e5\u9053\u5ba2\u670d
p2203
F73.744878957169462
sV\u51fa\u6765\u662f
p2204
F73.744878957169462
sV\u7ec4\u5408\u8001
p2205
F214.00558659217876
sV\u5f00\u901a\u4e1a\u52a1
p2206
F73.744878957169462
sV\u6da8\u8dcc\u600e\u4e48
p2207
F73.744878957169462
sV\u6211\u662f
p2208
F73.744878957169462
sV\u8f6c\u5e10\u7684
p2209
F73.744878957169462
sV\u662f\u7528
p2210
F18.28358208955224
sV\u4e00\u76f4\u6536
p2211
F214.00558659217876
sV\u53d8\u52a8\u7b97
p2212
F214.00558659217876
sV\u8bf7\u95ee\u5982\u4f55
p2213
F147.76492537313433
sV\u5c31\u4e0d\u884c
p2214
F73.744878957169462
sV\u5ffd\u7565\u9a8c\u8bc1
p2215
F73.744878957169462
sV\u8d2d\u4e70\u4e86
p2216
F147.76492537313433
sV\u5230\u4e07\u5206\u4e4b
p2217
F73.744878957169462
sV\u533a\u5206\u4e70
p2218
F73.744878957169462
sV\u4e25\u91cd\u5f71\u54cd
p2219
F214.00558659217876
sV\u76f8\u4fe1\u4ed6\u4eec
p2220
F214.00558659217876
sV\u7834\u89e3\u4e0d\u4e86
p2221
F214.00558659217876
sV\u770b\u5230\u7b7e\u5230
p2222
F73.744878957169462
sV\u6211\u67e5
p2223
F147.76492537313433
sV\u53d8\u621015
p2224
F73.744878957169462
sV\u8d26\u6237\u7533\u8d2d
p2225
F147.76492537313433
sV\u8bf4\u7f3a\u5c11
p2226
F73.744878957169462
sV\u66f4\u80fd
p2227
F73.744878957169462
sV\u6ca1\u53d8\u5316
p2228
F214.00558659217876
sV\u662f\u54ea
p2229
F214.00558659217876
sV\u70b9\u8fdb\u53bb
p2230
F214.00558659217876
sV\u6ca1\u4fe1\u606f
p2231
F73.744878957169462
sV\u56de\u8d2d\u8ba1\u5165
p2232
F73.744878957169462
sV\u9690\u85cf\u6211
p2233
F73.744878957169462
sV\u4e0d\u4f1a\u8d5a\u94b1
p2234
F214.00558659217876
sV\u5e10\u53f7\u4e22
p2235
F73.744878957169462
sV\u4e0b\u8f7d\u4f60
p2236
F214.00558659217876
sV\u5e94\u8be5\u6709
p2237
F73.744878957169462
sV\u5ba2\u6237\u7aef\u5fd8\u8bb0
p2238
F73.744878957169462
sV\u53d8\u5316\u800d
p2239
F214.00558659217876
sV\u6ca1\u505a\u597d
p2240
F214.00558659217876
sV\u4e5f\u6709
p2241
F73.744878957169462
sV0208\u8bf7
p2242
F73.744878957169462
sV\u8ddf\u5173\u6ce8
p2243
F73.744878957169462
sV\u79ef\u5206\u8981
p2244
F73.744878957169462
sV\u66f4\u6539\u5e7f\u53d1
p2245
F73.744878957169462
sV\u60f3\u628a
p2246
F73.744878957169462
sV\u6bd4\u8f83\u8d28\u7591
p2247
F214.00558659217876
sV\u53cd\u4eba\u7c7b
p2248
F214.00558659217876
sV\u4e7000
p2249
F214.00558659217876
sV\u8bf7\u95ee\u5eb7\u738b\u8def
p2250
F73.744878957169462
sV\u63a8\u51fa\u529f\u80fd
p2251
F73.744878957169462
sV\u662f18349176618
p2252
F73.744878957169462
sV\u597d\u7528\u5462
p2253
F214.00558659217876
sV\u613f\u610f\u7528
p2254
F214.00558659217876
sV\u662f\u51fa\u9519
p2255
F214.00558659217876
sV\u4e0d\u60f3\u53bb
p2256
F214.00558659217876
sV\u6dfb\u52a0\u81ea\u9009
p2257
F18.28358208955224
sV\u534a\u5929\u6ca1
p2258
F214.00558659217876
sV\u4e0d\u4e86\u53ea
p2259
F73.744878957169462
sV\u67e5\u4e0b\u8c22\u8c22
p2260
F73.744878957169462
sV\u5fd8\u8bb0\u4e86\u8981
p2261
F73.744878957169462
sV\u82f9\u679c\u7535\u8111\u6709\u6ca1\u6709
p2262
F214.00558659217876
sV\u8981\u6c42\u771f\u7684
p2263
F73.744878957169462
sV\u662f\u5230\u671f\u65e5
p2264
F73.744878957169462
sV\u770b\u90fd
p2265
F214.00558659217876
sV\u4eba\u5de5\u670d\u52a1
p2266
F73.744878957169462
sVapp\u80fd
p2267
F18.28358208955224
sV\u662f13.65
p2268
F73.744878957169462
sV\u7b2c\u4e8c\u6b21\u8d2d\u4e70
p2269
F73.744878957169462
sV\u6709\u732b\u817b
p2270
F214.00558659217876
sV\u4f60\u597d\u80fd
p2271
F73.744878957169462
sV\u671b\u543f
p2272
F73.744878957169462
sV\u4e70\u90fd
p2273
F214.00558659217876
sV\u53ef\u4ee5\u770b
p2274
F2.1688473520249221
sV\u6ca1\u6709\u7535\u8111
p2275
F73.744878957169462
sV\u4f63\u91d1\u53d8\u5316
p2276
F214.00558659217876
sV\u5b9e\u76d8\u7ec4\u5408
p2277
F1535.7349904397706
sV\u8bf7\u8be6\u7ec6\u63cf\u8ff0
p2278
F73.744878957169462
sV\u544a\u4f60\u4eec
p2279
F214.00558659217876
sV\u80fd\u5462
p2280
F73.744878957169462
sV\u89c9\u5f97\u597d
p2281
F214.00558659217876
sV\u65b0\u80a1\u6ca1\u6709
p2282
F73.744878957169462
sV\u663e\u793a\u5386\u53f2
p2283
F73.744878957169462
sV\u6d41\u5165\u6d41\u51fa
p2284
F214.00558659217876
sV\u5374\u8bf4\u6211
p2285
F214.00558659217876
sV\u6211\u6709
p2286
F73.744878957169462
sV\u4fe1\u606f\u8fd8\u6709
p2287
F214.00558659217876
sV\u53d1\u73b0\u65b0
p2288
F73.744878957169462
sV\u53f7\u5fd8
p2289
F73.744878957169462
s.