(dp1
VH\u80a1\u6da8
p2
F6391.6182288983864
sV\u622a\u81f3\u6b62
p3
F35370.02164803497
sV\u9632\u7a7a\u529e\u516c\u5ba4
p4
F35370.02164803497
sV\u667a\u80fd\u5236\u9020
p5
F6391.6182288983864
sV\u8d22\u4e92\u8054
p6
F35370.02164803497
sV\u6b62\u5f55\u5f97
p7
F35370.02164803497
sV\u62ff\u5730
p8
F35370.02164803497
sV\u94a2\u94c1\u884c\u4e1a\u6295\u8d44
p9
F35370.02164803497
sV\u677f\u5757\u8054\u52a8
p10
F6391.6182288983864
sV\u589e\u957f\u7535\u5b50
p11
F6391.6182288983864
sV\u80fd\u8ba9
p12
F35370.02164803497
sV\u7aef\u653e\u677e
p13
F35370.02164803497
sV\u96c6\u56e2\u9884\u671f
p14
F35370.02164803497
sV\u70b9\u8bc4\u4e1a\u7ee9
p15
F6391.6182288983864
sV\u5929\u7136\u6c14\u5f00\u91c7
p16
F35370.02164803497
sV\u51c0\u5229\u6da6\u589e
p17
F6391.6182288983864
sV\u6e2f\u57ce\u5f00\u53d1
p18
F6391.6182288983864
sV\u62ab\u9732\u5b63\u62a5
p19
F35370.02164803497
sV\u8054\u52a8\u63a8\u52a8
p20
F6391.6182288983864
sV\u6295\u5165\u9a71\u52a8
p21
F6391.6182288983864
sV\u4eba\u6c11\u9632\u7a7a
p22
F35370.02164803497
sV\u533b\u7597\u670d\u52a1
p23
F6391.6182288983864
sV\u5477\u54fa
p24
F141485.99571197861
sV\u7814\u5236\u8fdb\u5c55
p25
F6391.6182288983864
sV\u51fa\u5382\u4ef7\u683c\u4e0b\u964d
p26
F35370.02164803497
sV\u8d2d\u8d2d
p27
F35370.02164803497
sV\u4e0b\u8dcc\u662f
p28
F35370.02164803497
sV\u8d44\u4ea7\u4e8f\u635f
p29
F35370.02164803497
sV\u80a1\u5f00\u76d8
p30
F35370.02164803497
sV\u94c5\u56de\u6536
p31
F6391.6182288983864
sV\u9884\u544a\u70b9\u8bc4
p32
F6391.6182288983864
sV\u9a71\u52a8\u521b\u65b0
p33
F6391.6182288983864
sV\u516c\u53f8\u6210\u957f
p34
F6391.6182288983864
sV\u5355\u6676\u7845\u4ea7\u80fd
p35
F6391.6182288983864
sV\u4e1a\u52a1\u589e
p36
F6391.6182288983864
sV\u9700\u6c42\u589e\u901f
p37
F35370.02164803497
sV\u80a1\u6743\u6fc0\u52b1
p38
F6391.6182288983864
sV\u6c7d\u8f66\u52a0\u5de5
p39
F6391.6182288983864
sV\u6536\u8d2d\u80a1\u6743
p40
F35370.02164803497
sV\u671f\u4e34\u5e8a
p41
F6391.6182288983864
sV\u4e1a\u7ee9\u589e\u957f
p42
F31959.870870285547
sV\u9ec4\u91d1\u6da8
p43
F6391.6182288983864
sV\u7248\u6743\u5f52
p44
F35370.02164803497
sV\u51b6\u70bc\u538b\u5ef6
p45
F35370.02164803497
sV\u6da8\u903e
p46
F6391.6182288983864
sV\u4fee\u590d\u4e1a\u52a1
p47
F6391.6182288983864
sV\u7cfb\u589e\u6301
p48
F6391.6182288983864
sV\u9ed1\u8272\u91d1\u5c5e\u51b6\u70bc
p49
F35370.02164803497
sV\u80fd\u7f6e\u4e1a
p50
F35370.02164803497
sV\u84dd\u7130\u63a7\u80a1
p51
F35370.02164803497
sV\u505a\u505a
p52
F6391.6182288983864
sV\u8ba9\u82f9\u679c
p53
F35370.02164803497
sV\u7efc\u5408\u80fd\u6e90
p54
F6391.6182288983864
sV\u589e\u6301\u8bc4\u7ea7
p55
F35370.02164803497
sV\u6d88\u8d39\u91d1\u878d
p56
F35370.02164803497
sV\u52a0\u5927\u6295\u5165
p57
F6391.6182288983864
sV\u6709\u671b\u6301\u7eed
p58
F6391.6182288983864
sV\u516c\u53f8\u70b9\u8bc4
p59
F6391.6182288983864
sV\u5b9a\u589e
p60
F6391.6182288983864
sV\u6279\u53d1\u878d\u8d44
p61
F35370.02164803497
sV\u53bb\u4ea7\u80fd
p62
F70741.028121954616
sV\u8fdb\u5165\u671f
p63
F6391.6182288983864
sV\u4e1a\u52a1\u6709
p64
F6391.6182288983864
sV\u83b7\u6279\u8fdb\u5165
p65
F6391.6182288983864
sV\u4e2d\u6027\u8bc4\u7ea7
p66
F106113.01946289104
sV\u6267\u884c\u8463\u4e8b
p67
F35370.02164803497
sV\u6539\u5584\u7ea6\u675f
p68
F6391.6182288983864
sV\u4e1a\u7ee9\u9884\u544a
p69
F6391.6182288983864
sV\u77f3\u6cb9\u52a0\u5de5
p70
F35370.02164803497
sV\u662f\u6982\u7387
p71
F35370.02164803497
sV\u9f99\u5934\u53d7\u76ca
p72
F6391.6182288983864
sV\u5f00\u53d1\u677f\u5757
p73
F6391.6182288983864
sV\u5237\u8138
p74
F35370.02164803497
sV\u8d85\u9884\u671f
p75
F25567.540736203151
sV\u4f9b\u9500\u5927\u96c6
p76
F35370.02164803497
sV\u9884\u671f\u622a\u81f3
p77
F35370.02164803497
sV\u53bb\u5e74\u540c\u671f\u4e0b\u964d
p78
F35370.02164803497
sV\u9010\u5b63
p79
F6391.6182288983864
sV\u534a\u5bfc\u4f53\u8bbe\u5907
p80
F6391.6182288983864
sV\u6210\u957f\u80fd\u529b
p81
F35370.02164803497
sV\u6fc0\u52b1\u8ba1\u5212
p82
F12783.41442294306
sV\u7406\u8d22\u4f59\u989d
p83
F35370.02164803497
sV\u53d7\u76ca\u8f6e\u80ce
p84
F6391.6182288983864
sV\u589e\u901f\u8d85
p85
F6391.6182288983864
sV\u5229\u6da6\u589e
p86
F6391.6182288983864
sV\u53d1\u52a8\u673a\u7814\u5236
p87
F6391.6182288983864
sV\u6536\u8d2d\u8d44\u4ea7
p88
F6391.6182288983864
sV\u8d44\u4ea7\u6ce8\u5165
p89
F6391.6182288983864
sV\u521b\u65b0\u8f6c\u578b
p90
F6391.6182288983864
sV\u884c\u4e1a\u9700\u6c42
p91
F6391.6182288983864
sV\u8dcc\u8dcc
p92
F35370.02164803497
sV\u62df\u6536\u8d2d
p93
F35370.02164803497
sV\u79fb\u52a8\u652f\u4ed8
p94
F6391.6182288983864
sV\u4e70\u5165\u8bc4\u7ea7
p95
F35370.02164803497
sV\u9700\u6c42\u6539\u5584
p96
F6391.6182288983864
sV\u6295\u5236\u5ea6
p97
F6391.6182288983864
sV\u4e1a\u7ee9\u9884\u589e
p98
F6391.6182288983864
sV\u652f\u4ed8\u4e1a\u52a1
p99
F35370.02164803497
sV\u52a0\u901f\u91d1\u878d
p100
F6391.6182288983864
sV\u538b\u5ef6\u52a0\u5de5
p101
F35370.02164803497
sV\u63a8\u52a8\u4e1a\u7ee9
p102
F6391.6182288983864
sV\u4e0b\u964d\u964d\u5e45
p103
F35370.02164803497
sV\u8425\u6536\u9ad8
p104
F6391.6182288983864
sV\u4f53\u80b2\u7248\u6743
p105
F6391.6182288983864
sV\u7ea6\u675f\u6709\u671b
p106
F6391.6182288983864
sV\u5356\u697c
p107
F35370.02164803497
s.