(dp1
V\u8fdb\u51fa\u53e3\u603b\u4f53
p2
F8.8275862068965516
sV\u4e09\u677f\u6302\u724c
p3
F8.8275862068965516
sV\u5f00\u76d8\u5927\u8dcc
p4
F14
sV\u6da8\u8fd1\u9898\u6750\u80a1
p5
F8.8275862068965516
sV\u8d8b\u5411\u53d1\u5c55
p6
F8.8275862068965516
sV\u8fdb\u51fa\u53e3\u8d8b\u5411
p7
F8.8275862068965516
sV\u4e0b\u8dcc\u6536\u4e8e
p8
F6.7586206896551726
sV\u5b9e\u73b0\u51c0\u5229\u6da6
p9
F28.444444444444443
sV\u6307\u6da8\u521b\u4e1a\u677f
p10
F8.8275862068965516
sV\u670d\u52a1\u4e1a\u8c03\u67e5
p11
F8.8275862068965516
sV\u6307\u6570\u7ee7\u7eed
p12
F8.8275862068965516
sV\u4e0b\u8dcc\u80a1\u5e02
p13
F6.7586206896551726
sV\u6ce2\u52a8\u671f
p14
F6.7586206896551726
sV\u53d1\u5e03\u884c\u52a8
p15
F8.8275862068965516
sV\u4e2d\u5c0f\u677f\u6307\u6da8
p16
F18.285714285714285
sV\u6295\u653e\u903e
p17
F8.8275862068965516
sV\u6301\u7eed\u4f4e\u8ff7
p18
F14
sV\u80a1\u5e02\u632f\u8361
p19
F6.7586206896551726
sV\u770b\u6765\u80a1\u5e02
p20
F6.7586206896551726
sV\u4e0b\u964d\u57fa\u70b9
p21
F8.8275862068965516
sV\u8dcc\u9898\u6750\u80a1
p22
F6.7586206896551726
sV\u5c0f\u5e45\u56de\u843d
p23
F8.8275862068965516
sV\u589e\u957f\u5ba2\u6237
p24
F8.8275862068965516
sV\u8dcc\u903e
p25
F14
sV\u8d1f\u503a\u589e\u901f
p26
F8.8275862068965516
sV\u8d38\u6613\u987a\u5dee\u6536
p27
F8.8275862068965516
sV\u4e2d\u5c0f\u677f\u6307\u8dcc
p28
F6.7586206896551726
sV\u521b\u4e1a\u677f\u7ec8\u7ed3
p29
F6.7586206896551726
sV\u80a1\u6307\u4f4e\u5f00
p30
F6.7586206896551726
sV\u767e\u8d27\u7206\u53d1
p31
F14
sV\u6307\u6570\u4e0a\u5347
p32
F8.8275862068965516
sV\u5408\u8d44\u94f6\u884c
p33
F8.8275862068965516
sV\u5e02\u573a\u5f00\u95e8
p34
F8.8275862068965516
sV\u603b\u989d\u589e\u957f
p35
F18.285714285714285
sV\u6307\u8dcc\u6301\u7eed
p36
F14
sV\u6848\u4ef6\u4f5c\u51fa
p37
F6.7586206896551726
sV\u6307\u8dcc\u521b\u4e1a\u677f
p38
F6.7586206896551726
sV\u5fae\u4f4e\u4e8e
p39
F8.8275862068965516
sV\u4f4e\u5f00\u8dcc\u505c
p40
F6.7586206896551726
sV\u589e\u957f\u589e\u5e45
p41
F8.8275862068965516
sV\u5b9e\u73b0\u500d\u589e
p42
F8.8275862068965516
sV\u6210\u672c\u4e0b\u964d
p43
F8.8275862068965516
sV\u9006\u88ad\u8d1f\u503a
p44
F8.8275862068965516
sV\u9884\u793a\u6ce2\u52a8\u6027
p45
F6.7586206896551726
sV\u6307\u8dcc\u5931\u5b88
p46
F6.7586206896551726
sV\u4f4e\u5f00\u6307\u8dcc
p47
F6.7586206896551726
sV\u6982\u5ff5\u8868\u73b0
p48
F6.7586206896551726
sV\u64a4\u9000\u6f6e
p49
F6.7586206896551726
sV\u589e\u52a0\u589e\u957f
p50
F8.8275862068965516
sV\u52a0\u5927\u653f\u7b56
p51
F8.8275862068965516
sV\u8bf4\u94f6\u884c
p52
F8.8275862068965516
sV\u632f\u8361\u9884\u793a
p53
F6.7586206896551726
sV\u6210\u4e3a\u5168\u7403\u80a1\u5e02
p54
F6.7586206896551726
sV\u8dcc\u62a5
p55
F14
sV\u5927\u9762\u79ef\u629b\u552e
p56
F6.7586206896551726
sV\u5916\u8d38\u8fdb\u51fa\u53e3
p57
F8.8275862068965516
sV\u5f3a\u52bf\u5d1b\u8d77
p58
F8.8275862068965516
sV\u6d8c\u73b0\u64a4\u9000
p59
F6.7586206896551726
sV\u4f4e\u5f00\u4f4e\u5f00
p60
F6.7586206896551726
sV\u4f5c\u51fa\u884c\u653f\u5904\u7f5a
p61
F6.7586206896551726
sV\u8fdb\u5165\u6ce2\u52a8
p62
F6.7586206896551726
sV\u5546\u54c1\u5f81\u6536
p63
F14
sV\u7ec8\u7ed3\u5468\u7ebf
p64
F6.7586206896551726
sV\u8dcc\u5e45\u5c45
p65
F6.7586206896551726
sV\u6570\u91cf\u4e89\u53d6
p66
F8.8275862068965516
sV\u6276\u6301\u529b\u5ea6
p67
F8.8275862068965516
sV\u4e09\u677f\u4f1a
p68
F6.7586206896551726
sV\u529b\u5ea6\u63a8\u8fdb
p69
F8.8275862068965516
sV\u7ee7\u7eed\u4fdd\u6301
p70
F8.8275862068965516
sV\u603b\u989d\u63d0\u5347
p71
F8.8275862068965516
sV\u521b\u4e1a\u677f\u6da8\u8fd1
p72
F8.8275862068965516
sV\u4e1a\u754c\u770b\u6765
p73
F6.7586206896551726
sV\u652f\u6301A\u80a1
p74
F8.8275862068965516
sV\u6570\u91cf\u4e0b\u964d
p75
F6.7586206896551726
sV\u8f6f\u4ef6\u670d\u52a1
p76
F14
sV\u8d44\u6e90\u53d1\u6398
p77
F8.8275862068965516
sV\u4fdd\u6301\u666f\u6c14
p78
F8.8275862068965516
sV\u56e0\u7d20\u53e0\u52a0
p79
F8.8275862068965516
sV\u6ce2\u52a8\u6027\u6210\u4e3a
p80
F6.7586206896551726
sV\u4fdd\u6301\u589e\u957f
p81
F8.8275862068965516
sV\u521b\u4e1a\u677f\u6307\u8dcc
p82
F14
sV\u4e89\u53d6\u5b9e\u73b0
p83
F8.8275862068965516
sV\u94f6\u884c\u662f
p84
F8.8275862068965516
sV\u589e\u957f\u6001\u52bf
p85
F8.8275862068965516
sV\u77f3\u6cb9\u8dcc
p86
F6.7586206896551726
sV\u4e0b\u8dcc\u8dcc
p87
F6.7586206896551726
sV\u6570\u636e\u663e\u793a
p88
F8.8275862068965516
sV\u4f1a\u4f01\u4e1a
p89
F6.7586206896551726
sV\u6302\u724c\u4f01\u4e1a
p90
F8.8275862068965516
sV\u53e0\u52a0\u652f\u6301
p91
F8.8275862068965516
sV\u4f5c\u7528\u53d1\u6325
p92
F8.8275862068965516
sV\u5b58\u6b3e\u589e\u957f
p93
F8.8275862068965516
sV\u4f01\u4e1a\u5de5\u4f5c
p94
F8.8275862068965516
sV\u629b\u552e\u66b4\u8dcc
p95
F6.7586206896551726
sV\u62a5\u6210\u4ea4
p96
F6.7586206896551726
sV\u5e02\u4f4e\u5f00
p97
F6.7586206896551726
sV\u6307\u6570\u8dcc
p98
F6.7586206896551726
sV\u884c\u52a8\u5185
p99
F8.8275862068965516
sV\u63a8\u8fdb\u4f01\u4e1a
p100
F18.285714285714285
sV\u52a0\u901f\u4e0b\u8dcc
p101
F6.7586206896551726
sV\u8fdb\u51fa\u53e3\u589e\u957f
p102
F8.8275862068965516
sV\u8fdb\u51fa\u53e3\u603b\u503c
p103
F8.8275862068965516
sV\u521b\u4e1a\u677f\u6307\u6da8
p104
F8.8275862068965516
sV\u8dcc\u77f3\u6cb9
p105
F6.7586206896551726
sV\u8c03\u67e5\u4e2d\u5fc3
p106
F8.8275862068965516
sV\u5ba1\u4f01\u4e1a
p107
F8.8275862068965516
sV\u8f6c\u677f\u6d8c\u73b0
p108
F6.7586206896551726
sV\u534f\u540c\u53d1\u5c55
p109
F8.8275862068965516
sV\u5ba1\u6838\u901f\u5ea6
p110
F6.7586206896551726
sV\u8dcc\u5e45\u7f29
p111
F6.7586206896551726
sV\u5931\u5b88\u8dcc
p112
F6.7586206896551726
sV\u5de5\u4f5c\u529b\u5ea6\u52a0\u5927
p113
F8.8275862068965516
sV\u6708\u5ea6\u4f1a
p114
F6.7586206896551726
sV\u9898\u6750\u80a1\u5206\u5316
p115
F6.7586206896551726
sV\u8dcc\u8dcc
p116
F6.7586206896551726
sV\u6307\u8dcc\u62a5
p117
F6.7586206896551726
sV\u4e1a\u5185\u4eba\u58eb\u8868\u793a
p118
F6.7586206896551726
sV\u6307\u6570\u9ad8\u4e8e
p119
F8.8275862068965516
sV\u77f3\u6cb9\u4e0b\u8dcc
p120
F6.7586206896551726
sV\u7f29\u4e0b\u632b
p121
F6.7586206896551726
sV\u9879\u76ee\u6295\u653e
p122
F8.8275862068965516
sV\u6536\u8dcc\u521b\u4e1a\u677f
p123
F6.7586206896551726
sV\u52a0\u5feb\u63a8\u8fdb
p124
F8.8275862068965516
sV\u5e02\u5f00\u76d8
p125
F14
sV\u5f81\u6536\u5173\u7a0e
p126
F14
sV\u6276\u6301\u653f\u7b56
p127
F8.8275862068965516
sV\u4e0a\u4e0a\u5347
p128
F8.8275862068965516
sVA\u80a1\u5f00\u95e8
p129
F8.8275862068965516
sV\u653f\u7b56\u6276\u6301
p130
F8.8275862068965516
sV\u663e\u793a\u6708\u4efd
p131
F8.8275862068965516
sV\u7ecf\u6d4e\u590d\u82cf
p132
F8.8275862068965516
sV\u91d1\u878d\u670d\u52a1\u8d70\u8fdb
p133
F8.8275862068965516
sV\u5ba1\u6838\u8d8b\u4e25
p134
F6.7586206896551726
sV\u8bb0\u8005\u8bf4
p135
F8.8275862068965516
sV\u603b\u4f53\u4fdd\u6301
p136
F8.8275862068965516
sV\u8d70\u8fdb\u521a\u679c
p137
F8.8275862068965516
sV\u5386\u5e74\u589e\u957f
p138
F8.8275862068965516
s.