(dp1
V\u8fdb\u51fa\u53e3\u603b\u4f53
p2
F17.333333333333332
sV\u4e09\u677f\u6302\u724c
p3
F17.333333333333332
sV\u5f00\u76d8\u5927\u8dcc
p4
F10.315789473684211
sV\u6253\u9020\u957f\u79df
p5
F5.0256410256410255
sV\u94f6\u884c\u9700
p6
F5.0256410256410255
sV\u8bb0\u8005\u8bf4
p7
F17.333333333333332
sV\u9762\u5bf9\u91d1\u878d
p8
F5.0256410256410255
sV\u8d8b\u5411\u53d1\u5c55
p9
F17.333333333333332
sV\u8fdb\u51fa\u53e3\u8d8b\u5411
p10
F17.333333333333332
sV\u4e0b\u8dcc\u6536\u4e8e
p11
F5.0256410256410255
sV\u5b9e\u73b0\u51c0\u5229\u6da6
p12
F54.810810810810814
sV\u5b8c\u5584\u5236\u5ea6
p13
F5.0256410256410255
sV\u6b3a\u8bc8\u53d1\u884c
p14
F5.0256410256410255
sV\u79d1\u6280\u8981
p15
F5.0256410256410255
sV\u7eff\u8272\u53d1\u5c55
p16
F5.0256410256410255
sV\u670d\u52a1\u4e1a\u8c03\u67e5
p17
F17.333333333333332
sV\u8fdb\u51fa\u53e3\u589e\u957f
p18
F17.333333333333332
sV\u6307\u6570\u7ee7\u7eed
p19
F17.333333333333332
sV\u4e0b\u8dcc\u80a1\u5e02
p20
F5.0256410256410255
sV\u6ce2\u52a8\u671f
p21
F5.0256410256410255
sV\u53d1\u5e03\u884c\u52a8
p22
F17.333333333333332
sV\u4e2d\u5c0f\u677f\u6307\u6da8
p23
F35.578947368421055
sV\u529b\u5ea6\u63a8\u8fdb
p24
F17.333333333333332
sV\u4f4f\u623f\u79df\u8d41
p25
F5.0256410256410255
sV\u6301\u7eed\u4f4e\u8ff7
p26
F10.315789473684211
sV\u80a1\u5e02\u632f\u8361
p27
F5.0256410256410255
sV\u662f\u6761\u7801
p28
F5.0256410256410255
sV\u4e0b\u964d\u57fa\u70b9
p29
F17.333333333333332
sV\u8dcc\u9898\u6750\u80a1
p30
F5.0256410256410255
sV\u5c0f\u5e45\u56de\u843d
p31
F17.333333333333332
sV\u8981\u52a0\u5f3a
p32
F5.0256410256410255
sV\u589e\u957f\u5ba2\u6237
p33
F17.333333333333332
sV\u8dcc\u903e
p34
F10.315789473684211
sV\u8d1f\u503a\u589e\u901f
p35
F17.333333333333332
sV\u4fe1\u606f\u62ab\u9732
p36
F5.0256410256410255
sV\u8d38\u6613\u987a\u5dee\u6536
p37
F17.333333333333332
sV\u4e2d\u5c0f\u677f\u6307\u8dcc
p38
F5.0256410256410255
sV\u521b\u4e1a\u677f\u7ec8\u7ed3
p39
F5.0256410256410255
sV\u80a1\u6307\u4f4e\u5f00
p40
F5.0256410256410255
sV\u767e\u8d27\u7206\u53d1
p41
F10.315789473684211
sV\u6307\u6570\u4e0a\u5347
p42
F17.333333333333332
sV\u5408\u8d44\u94f6\u884c
p43
F17.333333333333332
sV\u5e02\u573a\u5f00\u95e8
p44
F17.333333333333332
sV\u8d44\u6e90\u53d1\u6398
p45
F17.333333333333332
sV\u603b\u989d\u589e\u957f
p46
F35.578947368421055
sV\u6307\u8dcc\u6301\u7eed
p47
F10.315789473684211
sV\u6848\u4ef6\u4f5c\u51fa
p48
F5.0256410256410255
sV\u5c45\u6c11\u4f7f\u7528
p49
F5.0256410256410255
sV\u6307\u8dcc\u521b\u4e1a\u677f
p50
F5.0256410256410255
sV\u6761\u7801\u652f\u4ed8
p51
F5.0256410256410255
sV\u4f4e\u5f00\u8dcc\u505c
p52
F5.0256410256410255
sV\u6301\u7eed\u5b8c\u5584
p53
F5.0256410256410255
sV\u5b9e\u73b0\u500d\u589e
p54
F17.333333333333332
sV\u53d1\u5e03\u793e\u4f1a
p55
F5.0256410256410255
sV\u9006\u88ad\u8d1f\u503a
p56
F17.333333333333332
sV\u63d0\u73b0\u5f71\u54cd
p57
F5.0256410256410255
sV\u6307\u8dcc\u5931\u5b88
p58
F5.0256410256410255
sV\u4f4e\u5f00\u6307\u8dcc
p59
F5.0256410256410255
sV\u79df\u8d2d\u5e76
p60
F5.0256410256410255
sV\u6982\u5ff5\u8868\u73b0
p61
F5.0256410256410255
sV\u64a4\u9000\u6f6e
p62
F5.0256410256410255
sV\u589e\u52a0\u589e\u957f
p63
F17.333333333333332
sV\u52a0\u5927\u653f\u7b56
p64
F17.333333333333332
sV\u8bf4\u94f6\u884c
p65
F17.333333333333332
sVH\u80a1\u56de\u8d2d
p66
F5.0256410256410255
sV\u5916\u8d38\u8fdb\u51fa\u53e3
p67
F17.333333333333332
sV\u79d1\u6280\u76d1\u7ba1
p68
F5.0256410256410255
sV\u632f\u8361\u9884\u793a
p69
F5.0256410256410255
sV\u6307\u6da8\u521b\u4e1a\u677f
p70
F17.333333333333332
sV\u6210\u4e3a\u5168\u7403\u80a1\u5e02
p71
F5.0256410256410255
sV\u8dcc\u62a5
p72
F10.315789473684211
sV\u5927\u9762\u79ef\u629b\u552e
p73
F5.0256410256410255
sV\u652f\u4ed8\u5c0f\u989d
p74
F5.0256410256410255
sV\u6301\u5361\u6d88\u8d39
p75
F5.0256410256410255
sV\u6d8c\u73b0\u64a4\u9000
p76
F5.0256410256410255
sV\u4e09\u677f\u6539\u9769
p77
F5.0256410256410255
sV\u4f4e\u5f00\u4f4e\u5f00
p78
F5.0256410256410255
sV\u4f5c\u51fa\u884c\u653f\u5904\u7f5a
p79
F5.0256410256410255
sV\u8fdb\u5165\u6ce2\u52a8
p80
F5.0256410256410255
sV\u5236\u5ea6\u5b89\u6392
p81
F5.0256410256410255
sV\u5546\u54c1\u5f81\u6536
p82
F10.315789473684211
sV\u7ec8\u7ed3\u5468\u7ebf
p83
F5.0256410256410255
sV\u8dcc\u5e45\u5c45
p84
F5.0256410256410255
sV\u662f\u5426\u5b58\u5728
p85
F5.0256410256410255
sV\u4e0d\u5f97\u8d85\u8fc7
p86
F5.0256410256410255
sV\u4e09\u677f\u6301\u7eed
p87
F5.0256410256410255
sV\u6276\u6301\u529b\u5ea6
p88
F17.333333333333332
sV\u4e09\u677f\u4f1a
p89
F5.0256410256410255
sV\u52a0\u5f3a\u76d1\u7ba1
p90
F5.0256410256410255
sV\u7ee7\u7eed\u4fdd\u6301
p91
F17.333333333333332
sV\u9700\u52a0\u901f
p92
F5.0256410256410255
sV\u662f\u7535\u6c14
p93
F5.0256410256410255
sV\u521b\u4e1a\u677f\u6da8\u8fd1
p94
F17.333333333333332
sV\u4e1a\u754c\u770b\u6765
p95
F5.0256410256410255
sV\u7535\u6c14\u662f\u5426
p96
F5.0256410256410255
sV\u652f\u6301A\u80a1
p97
F17.333333333333332
sV\u6570\u91cf\u4e0b\u964d
p98
F5.0256410256410255
sV\u8f6f\u4ef6\u670d\u52a1
p99
F10.315789473684211
sV\u5fae\u4f4e\u4e8e
p100
F17.333333333333332
sV\u8981\u4f53\u73b0
p101
F5.0256410256410255
sV\u4fdd\u6301\u666f\u6c14
p102
F17.333333333333332
sV\u56e0\u7d20\u53e0\u52a0
p103
F17.333333333333332
sV\u6ce2\u52a8\u6027\u6210\u4e3a
p104
F5.0256410256410255
sV\u4fdd\u6301\u589e\u957f
p105
F17.333333333333332
sV\u4e0a\u4e0a\u5347
p106
F17.333333333333332
sV\u521b\u4e1a\u677f\u6307\u8dcc
p107
F10.315789473684211
sV\u4e89\u53d6\u5b9e\u73b0
p108
F17.333333333333332
sV\u534f\u540c\u53d1\u5c55
p109
F17.333333333333332
sV\u94f6\u884c\u662f
p110
F17.333333333333332
sV\u589e\u957f\u6001\u52bf
p111
F17.333333333333332
sV\u5927\u989d\u63d0\u53d6
p112
F5.0256410256410255
sV\u521b\u65b0\u53d1\u5c55
p113
F5.0256410256410255
sV\u5f71\u54cd\u4e2a\u4eba
p114
F5.0256410256410255
sV\u77f3\u6cb9\u8dcc
p115
F5.0256410256410255
sV\u5237\u5361\u6d88\u8d39
p116
F5.0256410256410255
sV\u6570\u636e\u663e\u793a
p117
F17.333333333333332
sV\u4f1a\u4f01\u4e1a
p118
F5.0256410256410255
sV\u52a0\u901f\u8f6c\u578b
p119
F5.0256410256410255
sV\u7cfb\u9996\u4f8b
p120
F5.0256410256410255
sV\u6302\u724c\u4f01\u4e1a
p121
F17.333333333333332
sV\u8fdb\u519b\u4f4f\u623f
p122
F5.0256410256410255
sV\u5927\u989d\u63d0\u73b0
p123
F5.0256410256410255
sV\u8bc9\u8bbc\u6848\u80dc\u8bc9
p124
F5.0256410256410255
sV\u4f5c\u7528\u53d1\u6325
p125
F17.333333333333332
sV\u5b58\u6b3e\u589e\u957f
p126
F17.333333333333332
sV\u4f01\u4e1a\u5de5\u4f5c
p127
F17.333333333333332
sV\u629b\u552e\u66b4\u8dcc
p128
F5.0256410256410255
sV\u8de8\u884c\u6e05\u7b97
p129
F5.0256410256410255
sV\u62a5\u6210\u4ea4
p130
F5.0256410256410255
sV\u5e02\u4f4e\u5f00
p131
F5.0256410256410255
sV\u6307\u6570\u8dcc
p132
F5.0256410256410255
sV\u884c\u52a8\u5185
p133
F17.333333333333332
sV\u63a8\u8fdb\u4f01\u4e1a
p134
F35.578947368421055
sV\u79df\u8d41\u5e02\u573a
p135
F5.0256410256410255
sV\u52a0\u901f\u4e0b\u8dcc
p136
F5.0256410256410255
sV\u5f3a\u52bf\u8fdb\u519b
p137
F5.0256410256410255
sV\u589e\u957f\u589e\u5e45
p138
F17.333333333333332
sV\u8fdb\u51fa\u53e3\u603b\u503c
p139
F17.333333333333332
sV\u6295\u653e\u903e
p140
F17.333333333333332
sV\u6210\u672c\u4e0b\u964d
p141
F17.333333333333332
sV\u521b\u4e1a\u677f\u6307\u6da8
p142
F17.333333333333332
sV\u8dcc\u77f3\u6cb9
p143
F5.0256410256410255
sV\u8c03\u67e5\u4e2d\u5fc3
p144
F17.333333333333332
sV\u4e92\u91d1\u521b\u65b0
p145
F5.0256410256410255
sV\u5ba1\u4f01\u4e1a
p146
F17.333333333333332
sV\u8f6c\u677f\u6d8c\u73b0
p147
F5.0256410256410255
sV\u770b\u6765\u80a1\u5e02
p148
F5.0256410256410255
sV\u5ba1\u6838\u901f\u5ea6
p149
F5.0256410256410255
sV\u8dcc\u5e45\u7f29
p150
F5.0256410256410255
sV\u56de\u8d2d\u83b7\u6279
p151
F5.0256410256410255
sV\u6570\u91cf\u4e89\u53d6
p152
F17.333333333333332
sV\u6da8\u8fd1\u9898\u6750\u80a1
p153
F17.333333333333332
sV\u5931\u5b88\u8dcc
p154
F5.0256410256410255
sV\u5de5\u4f5c\u529b\u5ea6\u52a0\u5927
p155
F17.333333333333332
sV\u6708\u5ea6\u4f1a
p156
F5.0256410256410255
sV\u9898\u6750\u80a1\u5206\u5316
p157
F5.0256410256410255
sV\u9884\u793a\u6ce2\u52a8\u6027
p158
F5.0256410256410255
sV\u6307\u8dcc\u62a5
p159
F5.0256410256410255
sV\u4e1a\u5185\u4eba\u58eb\u8868\u793a
p160
F5.0256410256410255
sV\u6307\u6570\u9ad8\u4e8e
p161
F17.333333333333332
sV\u53e0\u52a0\u652f\u6301
p162
F17.333333333333332
sV\u77f3\u6cb9\u4e0b\u8dcc
p163
F5.0256410256410255
sV\u7f29\u4e0b\u632b
p164
F5.0256410256410255
sV\u9879\u76ee\u6295\u653e
p165
F17.333333333333332
sV\u5e02\u573a\u53d1\u5c55
p166
F5.0256410256410255
sV\u6536\u8dcc\u521b\u4e1a\u677f
p167
F5.0256410256410255
sV\u52a0\u5feb\u63a8\u8fdb
p168
F17.333333333333332
sV\u5e02\u5f00\u76d8
p169
F10.315789473684211
sV\u652f\u4ed8\u4e1a\u52a1
p170
F5.0256410256410255
sV\u5f81\u6536\u5173\u7a0e
p171
F10.315789473684211
sV\u6276\u6301\u653f\u7b56
p172
F17.333333333333332
sV\u5e02\u573a\u6253\u9020
p173
F5.0256410256410255
sVA\u80a1\u5f00\u95e8
p174
F17.333333333333332
sV\u653f\u7b56\u6276\u6301
p175
F17.333333333333332
sV\u663e\u793a\u6708\u4efd
p176
F17.333333333333332
sV\u7ecf\u6d4e\u590d\u82cf
p177
F17.333333333333332
sV\u91d1\u878d\u670d\u52a1\u8d70\u8fdb
p178
F17.333333333333332
sV\u8d2d\u5e76\u4e3e
p179
F5.0256410256410255
sV\u5ba1\u6838\u8d8b\u4e25
p180
F5.0256410256410255
sV\u4e0b\u8dcc\u8dcc
p181
F5.0256410256410255
sV\u603b\u4f53\u4fdd\u6301
p182
F17.333333333333332
sV\u5f3a\u52bf\u5d1b\u8d77
p183
F17.333333333333332
sV\u8d70\u8fdb\u521a\u679c
p184
F17.333333333333332
sV\u603b\u989d\u63d0\u5347
p185
F17.333333333333332
sV\u76d1\u7ba1\u91d1\u878d
p186
F5.0256410256410255
sV\u8dcc\u8dcc
p187
F5.0256410256410255
sV\u5386\u5e74\u589e\u957f
p188
F17.333333333333332
s.